   1               		.file	"PM.cpp"
   2               	__SP_H__ = 0x3e
   3               	__SP_L__ = 0x3d
   4               	__SREG__ = 0x3f
   5               	__tmp_reg__ = 0
   6               	__zero_reg__ = 1
   7               		.text
   8               	.Ltext0:
   9               		.cfi_sections	.debug_frame
  10               	.global	_Z5writeii
  12               	_Z5writeii:
  13               	.LFB6:
  14               		.file 1 "PM.cpp"
   1:PM.cpp        **** #include "PM.h"
   2:PM.cpp        **** 
   3:PM.cpp        **** 
   4:PM.cpp        **** 
   5:PM.cpp        **** int write(int address, int data){
  15               		.loc 1 5 0
  16               		.cfi_startproc
  17               	.LVL0:
  18               	/* prologue: function */
  19               	/* frame size = 0 */
  20               	/* stack size = 0 */
  21               	.L__stack_usage = 0
   6:PM.cpp        ****     return -1;
   7:PM.cpp        **** }
  22               		.loc 1 7 0
  23 0000 8FEF      		ldi r24,lo8(-1)
  24 0002 9FEF      		ldi r25,lo8(-1)
  25               	.LVL1:
  26 0004 0895      		ret
  27               		.cfi_endproc
  28               	.LFE6:
  30               	.global	_Z4readii
  32               	_Z4readii:
  33               	.LFB7:
   8:PM.cpp        **** long read(int address, int l){
  34               		.loc 1 8 0
  35               		.cfi_startproc
  36               	.LVL2:
  37               	/* prologue: function */
  38               	/* frame size = 0 */
  39               	/* stack size = 0 */
  40               	.L__stack_usage = 0
   9:PM.cpp        ****     return -1;
  10:PM.cpp        **** }
  41               		.loc 1 10 0
  42 0006 6FEF      		ldi r22,lo8(-1)
  43 0008 7FEF      		ldi r23,lo8(-1)
  44 000a CB01      		movw r24,r22
  45               	.LVL3:
  46 000c 0895      		ret
  47               		.cfi_endproc
  48               	.LFE7:
  50               	.global	_ZN2PM4initEv
  52               	_ZN2PM4initEv:
  53               	.LFB8:
  11:PM.cpp        **** 
  12:PM.cpp        **** void PM::init(void) {
  54               		.loc 1 12 0
  55               		.cfi_startproc
  56               	.LVL4:
  57 000e CF93      		push r28
  58               	.LCFI0:
  59               		.cfi_def_cfa_offset 3
  60               		.cfi_offset 28, -2
  61 0010 DF93      		push r29
  62               	.LCFI1:
  63               		.cfi_def_cfa_offset 4
  64               		.cfi_offset 29, -3
  65               	/* prologue: function */
  66               	/* frame size = 0 */
  67               	/* stack size = 2 */
  68               	.L__stack_usage = 2
  69 0012 EC01      		movw r28,r24
  13:PM.cpp        ****     TWBR = 0x48;
  70               		.loc 1 13 0
  71 0014 88E4      		ldi r24,lo8(72)
  72               	.LVL5:
  73 0016 8093 B800 		sts 184,r24
  14:PM.cpp        ****     write(REG_CTRLA, 0b00001110); //calibrate on demand, continuous scan, sense only
  74               		.loc 1 14 0
  75 001a 4EE0      		ldi r20,lo8(14)
  76 001c 50E0      		ldi r21,0
  77 001e 60E0      		ldi r22,0
  78 0020 70E0      		ldi r23,0
  79 0022 CE01      		movw r24,r28
  80 0024 0E94 0000 		call _ZN2PM5writeEii
  81               	.LVL6:
  15:PM.cpp        ****     write(REG_NADC, 0x80); //12 bit mode
  82               		.loc 1 15 0
  83 0028 40E8      		ldi r20,lo8(-128)
  84 002a 50E0      		ldi r21,0
  85 002c 64E0      		ldi r22,lo8(4)
  86 002e 70E0      		ldi r23,0
  87 0030 CE01      		movw r24,r28
  88 0032 0E94 0000 		call _ZN2PM5writeEii
  89               	.LVL7:
  16:PM.cpp        ****     
  17:PM.cpp        ****     long abc = read(REG_NADC,1);
  90               		.loc 1 17 0
  91 0036 41E0      		ldi r20,lo8(1)
  92 0038 50E0      		ldi r21,0
  93 003a 64E0      		ldi r22,lo8(4)
  94 003c 70E0      		ldi r23,0
  95 003e CE01      		movw r24,r28
  96               	/* epilogue start */
  18:PM.cpp        ****     // Serial.print("REG_NADC : 0b");
  19:PM.cpp        ****     //Serial.print(abc, BIN);
  20:PM.cpp        ****     
  21:PM.cpp        ****     // Serial.println("  PM init done !");
  22:PM.cpp        ****     
  23:PM.cpp        **** }
  97               		.loc 1 23 0
  98 0040 DF91      		pop r29
  99 0042 CF91      		pop r28
 100               	.LVL8:
  17:PM.cpp        ****     // Serial.print("REG_NADC : 0b");
 101               		.loc 1 17 0
 102 0044 0C94 0000 		jmp _ZN2PM4readEii
 103               	.LVL9:
 104               		.cfi_endproc
 105               	.LFE8:
 107               	.global	_ZN2PM9dataReadyEv
 109               	_ZN2PM9dataReadyEv:
 110               	.LFB9:
  24:PM.cpp        **** 
  25:PM.cpp        **** bool PM::dataReady(void) {
 111               		.loc 1 25 0
 112               		.cfi_startproc
 113               	.LVL10:
 114               	/* prologue: function */
 115               	/* frame size = 0 */
 116               	/* stack size = 0 */
 117               	.L__stack_usage = 0
  26:PM.cpp        ****     int abc = read(REG_ADC_STATUS,1);
 118               		.loc 1 26 0
 119 0048 41E0      		ldi r20,lo8(1)
 120 004a 50E0      		ldi r21,0
 121 004c 62E3      		ldi r22,lo8(50)
 122 004e 70E0      		ldi r23,0
 123 0050 0E94 0000 		call _ZN2PM4readEii
 124               	.LVL11:
  27:PM.cpp        ****     //Serial.print("STATUS : 0b");
  28:PM.cpp        ****     // Serial.print(abc, BIN);
  29:PM.cpp        ****     return (abc && 0x83);
 125               		.loc 1 29 0
 126 0054 21E0      		ldi r18,lo8(1)
 127 0056 672B      		or r22,r23
 128 0058 01F4      		brne .L5
 129 005a 20E0      		ldi r18,0
 130               	.L5:
  30:PM.cpp        **** }
 131               		.loc 1 30 0
 132 005c 822F      		mov r24,r18
 133 005e 0895      		ret
 134               		.cfi_endproc
 135               	.LFE9:
 137               	.global	__floatsisf
 138               	.global	__mulsf3
 139               	.global	_ZN2PM14readInputPowerEv
 141               	_ZN2PM14readInputPowerEv:
 142               	.LFB10:
  31:PM.cpp        **** 
  32:PM.cpp        **** void PM::readInputPower(void) {
 143               		.loc 1 32 0
 144               		.cfi_startproc
 145               	.LVL12:
 146 0060 CF93      		push r28
 147               	.LCFI2:
 148               		.cfi_def_cfa_offset 3
 149               		.cfi_offset 28, -2
 150 0062 DF93      		push r29
 151               	.LCFI3:
 152               		.cfi_def_cfa_offset 4
 153               		.cfi_offset 29, -3
 154               	/* prologue: function */
 155               	/* frame size = 0 */
 156               	/* stack size = 2 */
 157               	.L__stack_usage = 2
 158 0064 EC01      		movw r28,r24
  33:PM.cpp        ****     long p = read(REG_P1,3);
 159               		.loc 1 33 0
 160 0066 43E0      		ldi r20,lo8(3)
 161 0068 50E0      		ldi r21,0
 162 006a 65E0      		ldi r22,lo8(5)
 163 006c 70E0      		ldi r23,0
 164 006e 0E94 0000 		call _ZN2PM4readEii
 165               	.LVL13:
  34:PM.cpp        ****     input.p = p * 0.031875;
 166               		.loc 1 34 0
 167 0072 0E94 0000 		call __floatsisf
 168               	.LVL14:
 169 0076 2CE5      		ldi r18,lo8(92)
 170 0078 3FE8      		ldi r19,lo8(-113)
 171 007a 42E0      		ldi r20,lo8(2)
 172 007c 5DE3      		ldi r21,lo8(61)
 173 007e 0E94 0000 		call __mulsf3
 174               	.LVL15:
 175 0082 6887      		std Y+8,r22
 176 0084 7987      		std Y+9,r23
 177 0086 8A87      		std Y+10,r24
 178 0088 9B87      		std Y+11,r25
  35:PM.cpp        ****     long i = read(REG_I1,2)>>4;
 179               		.loc 1 35 0
 180 008a 42E0      		ldi r20,lo8(2)
 181 008c 50E0      		ldi r21,0
 182 008e 64E1      		ldi r22,lo8(20)
 183 0090 70E0      		ldi r23,0
 184 0092 CE01      		movw r24,r28
 185 0094 0E94 0000 		call _ZN2PM4readEii
 186               	.LVL16:
  36:PM.cpp        ****     input.i = i * 1.25;
 187               		.loc 1 36 0
 188 0098 24E0      		ldi r18,4
 189               		1:
 190 009a 9595      		asr r25
 191 009c 8795      		ror r24
 192 009e 7795      		ror r23
 193 00a0 6795      		ror r22
 194 00a2 2A95      		dec r18
 195 00a4 01F4      		brne 1b
 196               	.LVL17:
 197 00a6 0E94 0000 		call __floatsisf
 198               	.LVL18:
 199 00aa 20E0      		ldi r18,0
 200 00ac 30E0      		ldi r19,0
 201 00ae 40EA      		ldi r20,lo8(-96)
 202 00b0 5FE3      		ldi r21,lo8(63)
 203 00b2 0E94 0000 		call __mulsf3
 204               	.LVL19:
 205 00b6 6C83      		std Y+4,r22
 206 00b8 7D83      		std Y+5,r23
 207 00ba 8E83      		std Y+6,r24
 208 00bc 9F83      		std Y+7,r25
  37:PM.cpp        ****     long v = read(REG_S1,2)>>4;
 209               		.loc 1 37 0
 210 00be 42E0      		ldi r20,lo8(2)
 211 00c0 50E0      		ldi r21,0
 212 00c2 6EE1      		ldi r22,lo8(30)
 213 00c4 70E0      		ldi r23,0
 214 00c6 CE01      		movw r24,r28
 215 00c8 0E94 0000 		call _ZN2PM4readEii
 216               	.LVL20:
  38:PM.cpp        ****     input.v *= v * 0.0255;
 217               		.loc 1 38 0
 218 00cc 34E0      		ldi r19,4
 219               		1:
 220 00ce 9595      		asr r25
 221 00d0 8795      		ror r24
 222 00d2 7795      		ror r23
 223 00d4 6795      		ror r22
 224 00d6 3A95      		dec r19
 225 00d8 01F4      		brne 1b
 226               	.LVL21:
 227 00da 0E94 0000 		call __floatsisf
 228               	.LVL22:
 229 00de 20E6      		ldi r18,lo8(96)
 230 00e0 35EE      		ldi r19,lo8(-27)
 231 00e2 40ED      		ldi r20,lo8(-48)
 232 00e4 5CE3      		ldi r21,lo8(60)
 233 00e6 0E94 0000 		call __mulsf3
 234               	.LVL23:
 235 00ea 9B01      		movw r18,r22
 236 00ec AC01      		movw r20,r24
 237 00ee 6881      		ld r22,Y
 238 00f0 7981      		ldd r23,Y+1
 239 00f2 8A81      		ldd r24,Y+2
 240 00f4 9B81      		ldd r25,Y+3
 241 00f6 0E94 0000 		call __mulsf3
 242               	.LVL24:
 243 00fa 6883      		st Y,r22
 244 00fc 7983      		std Y+1,r23
 245 00fe 8A83      		std Y+2,r24
 246 0100 9B83      		std Y+3,r25
 247               	/* epilogue start */
  39:PM.cpp        **** }
 248               		.loc 1 39 0
 249 0102 DF91      		pop r29
 250 0104 CF91      		pop r28
 251               	.LVL25:
 252 0106 0895      		ret
 253               		.cfi_endproc
 254               	.LFE10:
 256               	.global	_ZN2PM12displayPowerENS_7Power_TE
 258               	_ZN2PM12displayPowerENS_7Power_TE:
 259               	.LFB11:
  40:PM.cpp        **** 
  41:PM.cpp        **** void PM::displayPower(Power_T pt) {
 260               		.loc 1 41 0
 261               		.cfi_startproc
 262               	.LVL26:
 263 0108 CF92      		push r12
 264               	.LCFI4:
 265               		.cfi_def_cfa_offset 3
 266               		.cfi_offset 12, -2
 267 010a DF92      		push r13
 268               	.LCFI5:
 269               		.cfi_def_cfa_offset 4
 270               		.cfi_offset 13, -3
 271 010c EF92      		push r14
 272               	.LCFI6:
 273               		.cfi_def_cfa_offset 5
 274               		.cfi_offset 14, -4
 275 010e FF92      		push r15
 276               	.LCFI7:
 277               		.cfi_def_cfa_offset 6
 278               		.cfi_offset 15, -5
 279 0110 0F93      		push r16
 280               	.LCFI8:
 281               		.cfi_def_cfa_offset 7
 282               		.cfi_offset 16, -6
 283 0112 1F93      		push r17
 284               	.LCFI9:
 285               		.cfi_def_cfa_offset 8
 286               		.cfi_offset 17, -7
 287 0114 CF93      		push r28
 288               	.LCFI10:
 289               		.cfi_def_cfa_offset 9
 290               		.cfi_offset 28, -8
 291 0116 DF93      		push r29
 292               	.LCFI11:
 293               		.cfi_def_cfa_offset 10
 294               		.cfi_offset 29, -9
 295 0118 CDB7      		in r28,__SP_L__
 296 011a DEB7      		in r29,__SP_H__
 297               	.LCFI12:
 298               		.cfi_def_cfa_register 28
 299 011c 2C97      		sbiw r28,12
 300               	.LCFI13:
 301               		.cfi_def_cfa_offset 22
 302 011e 0FB6      		in __tmp_reg__,__SREG__
 303 0120 F894      		cli
 304 0122 DEBF      		out __SP_H__,r29
 305 0124 0FBE      		out __SREG__,__tmp_reg__
 306 0126 CDBF      		out __SP_L__,r28
 307               	/* prologue: function */
 308               	/* frame size = 12 */
 309               	/* stack size = 20 */
 310               	.L__stack_usage = 20
 311               	/* epilogue start */
  42:PM.cpp        ****     /*Serial.print(pt.v, 2);
  43:PM.cpp        ****      * Serial.print("V\t");
  44:PM.cpp        ****      * Serial.print(pt.i, 1);
  45:PM.cpp        ****      * Serial.print("mA\t");
  46:PM.cpp        ****      * Serial.print(pt.p, 1);
  47:PM.cpp        ****      * Serial.print("mW\t");*/
  48:PM.cpp        **** }
 312               		.loc 1 48 0
 313 0128 2C96      		adiw r28,12
 314 012a 0FB6      		in __tmp_reg__,__SREG__
 315 012c F894      		cli
 316 012e DEBF      		out __SP_H__,r29
 317 0130 0FBE      		out __SREG__,__tmp_reg__
 318 0132 CDBF      		out __SP_L__,r28
 319 0134 DF91      		pop r29
 320 0136 CF91      		pop r28
 321 0138 1F91      		pop r17
 322 013a 0F91      		pop r16
 323 013c FF90      		pop r15
 324 013e EF90      		pop r14
 325 0140 DF90      		pop r13
 326 0142 CF90      		pop r12
 327 0144 0895      		ret
 328               		.cfi_endproc
 329               	.LFE11:
 331               	.global	_ZN2PM15readOutputPowerEv
 333               	_ZN2PM15readOutputPowerEv:
 334               	.LFB12:
  49:PM.cpp        **** 
  50:PM.cpp        **** void PM::readOutputPower(void) {
 335               		.loc 1 50 0
 336               		.cfi_startproc
 337               	.LVL27:
 338 0146 CF93      		push r28
 339               	.LCFI14:
 340               		.cfi_def_cfa_offset 3
 341               		.cfi_offset 28, -2
 342 0148 DF93      		push r29
 343               	.LCFI15:
 344               		.cfi_def_cfa_offset 4
 345               		.cfi_offset 29, -3
 346               	/* prologue: function */
 347               	/* frame size = 0 */
 348               	/* stack size = 2 */
 349               	.L__stack_usage = 2
 350 014a EC01      		movw r28,r24
  51:PM.cpp        ****     
  52:PM.cpp        ****     long p = read(REG_P2,3);
 351               		.loc 1 52 0
 352 014c 43E0      		ldi r20,lo8(3)
 353 014e 50E0      		ldi r21,0
 354 0150 67E3      		ldi r22,lo8(55)
 355 0152 70E0      		ldi r23,0
 356 0154 0E94 0000 		call _ZN2PM4readEii
 357               	.LVL28:
  53:PM.cpp        ****     output.p = p * 0.031875;
 358               		.loc 1 53 0
 359 0158 0E94 0000 		call __floatsisf
 360               	.LVL29:
 361 015c 2CE5      		ldi r18,lo8(92)
 362 015e 3FE8      		ldi r19,lo8(-113)
 363 0160 42E0      		ldi r20,lo8(2)
 364 0162 5DE3      		ldi r21,lo8(61)
 365 0164 0E94 0000 		call __mulsf3
 366               	.LVL30:
 367 0168 6C8B      		std Y+20,r22
 368 016a 7D8B      		std Y+21,r23
 369 016c 8E8B      		std Y+22,r24
 370 016e 9F8B      		std Y+23,r25
  54:PM.cpp        ****     long i = read(REG_I2,2)>>4;
 371               		.loc 1 54 0
 372 0170 42E0      		ldi r20,lo8(2)
 373 0172 50E0      		ldi r21,0
 374 0174 66E4      		ldi r22,lo8(70)
 375 0176 70E0      		ldi r23,0
 376 0178 CE01      		movw r24,r28
 377 017a 0E94 0000 		call _ZN2PM4readEii
 378               	.LVL31:
  55:PM.cpp        ****     output.i = i * 1.25;
 379               		.loc 1 55 0
 380 017e 24E0      		ldi r18,4
 381               		1:
 382 0180 9595      		asr r25
 383 0182 8795      		ror r24
 384 0184 7795      		ror r23
 385 0186 6795      		ror r22
 386 0188 2A95      		dec r18
 387 018a 01F4      		brne 1b
 388               	.LVL32:
 389 018c 0E94 0000 		call __floatsisf
 390               	.LVL33:
 391 0190 20E0      		ldi r18,0
 392 0192 30E0      		ldi r19,0
 393 0194 40EA      		ldi r20,lo8(-96)
 394 0196 5FE3      		ldi r21,lo8(63)
 395 0198 0E94 0000 		call __mulsf3
 396               	.LVL34:
 397 019c 688B      		std Y+16,r22
 398 019e 798B      		std Y+17,r23
 399 01a0 8A8B      		std Y+18,r24
 400 01a2 9B8B      		std Y+19,r25
  56:PM.cpp        ****     long v = read(REG_S2,2)>>4;
 401               		.loc 1 56 0
 402 01a4 42E0      		ldi r20,lo8(2)
 403 01a6 50E0      		ldi r21,0
 404 01a8 60E5      		ldi r22,lo8(80)
 405 01aa 70E0      		ldi r23,0
 406 01ac CE01      		movw r24,r28
 407 01ae 0E94 0000 		call _ZN2PM4readEii
 408               	.LVL35:
  57:PM.cpp        ****     output.v *= v * 0.0255;
 409               		.loc 1 57 0
 410 01b2 34E0      		ldi r19,4
 411               		1:
 412 01b4 9595      		asr r25
 413 01b6 8795      		ror r24
 414 01b8 7795      		ror r23
 415 01ba 6795      		ror r22
 416 01bc 3A95      		dec r19
 417 01be 01F4      		brne 1b
 418               	.LVL36:
 419 01c0 0E94 0000 		call __floatsisf
 420               	.LVL37:
 421 01c4 20E6      		ldi r18,lo8(96)
 422 01c6 35EE      		ldi r19,lo8(-27)
 423 01c8 40ED      		ldi r20,lo8(-48)
 424 01ca 5CE3      		ldi r21,lo8(60)
 425 01cc 0E94 0000 		call __mulsf3
 426               	.LVL38:
 427 01d0 9B01      		movw r18,r22
 428 01d2 AC01      		movw r20,r24
 429 01d4 6C85      		ldd r22,Y+12
 430 01d6 7D85      		ldd r23,Y+13
 431 01d8 8E85      		ldd r24,Y+14
 432 01da 9F85      		ldd r25,Y+15
 433 01dc 0E94 0000 		call __mulsf3
 434               	.LVL39:
 435 01e0 6C87      		std Y+12,r22
 436 01e2 7D87      		std Y+13,r23
 437 01e4 8E87      		std Y+14,r24
 438 01e6 9F87      		std Y+15,r25
 439               	/* epilogue start */
  58:PM.cpp        **** }
 440               		.loc 1 58 0
 441 01e8 DF91      		pop r29
 442 01ea CF91      		pop r28
 443               	.LVL40:
 444 01ec 0895      		ret
 445               		.cfi_endproc
 446               	.LFE12:
 448               	.Letext0:
 449               		.file 2 "PM.h"