
/tmp/arduino_build_376412/elevator_altimeter.ino.elf:     file format elf32-avr


Disassembly of section .text:

00000000 <__vectors>:
__vectors():
       0:	0c 94 53 00 	jmp	0xa6	; 0xa6 <__ctors_end>
       4:	0c 94 e1 06 	jmp	0xdc2	; 0xdc2 <__vector_1>
       8:	0c 94 7b 00 	jmp	0xf6	; 0xf6 <__bad_interrupt>
       c:	0c 94 7b 00 	jmp	0xf6	; 0xf6 <__bad_interrupt>
      10:	0c 94 f0 06 	jmp	0xde0	; 0xde0 <__vector_4>
      14:	0c 94 7b 00 	jmp	0xf6	; 0xf6 <__bad_interrupt>
      18:	0c 94 7b 00 	jmp	0xf6	; 0xf6 <__bad_interrupt>
      1c:	0c 94 7b 00 	jmp	0xf6	; 0xf6 <__bad_interrupt>
      20:	0c 94 7b 00 	jmp	0xf6	; 0xf6 <__bad_interrupt>
      24:	0c 94 7b 00 	jmp	0xf6	; 0xf6 <__bad_interrupt>
      28:	0c 94 7b 00 	jmp	0xf6	; 0xf6 <__bad_interrupt>
      2c:	0c 94 7b 00 	jmp	0xf6	; 0xf6 <__bad_interrupt>
      30:	0c 94 03 06 	jmp	0xc06	; 0xc06 <__vector_12>
      34:	0c 94 7b 00 	jmp	0xf6	; 0xf6 <__bad_interrupt>
      38:	0c 94 7b 00 	jmp	0xf6	; 0xf6 <__bad_interrupt>
      3c:	0c 94 7b 00 	jmp	0xf6	; 0xf6 <__bad_interrupt>
      40:	0c 94 d1 05 	jmp	0xba2	; 0xba2 <__vector_16>
      44:	0c 94 ab 05 	jmp	0xb56	; 0xb56 <__vector_17>
      48:	0c 94 7b 00 	jmp	0xf6	; 0xf6 <__bad_interrupt>
      4c:	0c 94 7b 00 	jmp	0xf6	; 0xf6 <__bad_interrupt>
      50:	0c 94 7b 00 	jmp	0xf6	; 0xf6 <__bad_interrupt>
      54:	0c 94 7b 00 	jmp	0xf6	; 0xf6 <__bad_interrupt>
      58:	0c 94 7b 00 	jmp	0xf6	; 0xf6 <__bad_interrupt>
      5c:	0c 94 c8 06 	jmp	0xd90	; 0xd90 <__vector_23>
      60:	0c 94 4d 06 	jmp	0xc9a	; 0xc9a <__vector_24>
      64:	0c 94 7b 00 	jmp	0xf6	; 0xf6 <__bad_interrupt>
      68:	0c 94 7b 00 	jmp	0xf6	; 0xf6 <__bad_interrupt>
      6c:	0c 94 7b 00 	jmp	0xf6	; 0xf6 <__bad_interrupt>

00000070 <__trampolines_end>:
__trampolines_start():
      70:	00 2f       	mov	r16, r16
      72:	2b 27       	eor	r18, r27

00000074 <port_to_mode_PGM>:
      74:	00 30 2c 28                                         .0,(

00000078 <port_to_pullup_PGM>:
      78:	00 32 2e 2a                                         .2.*

0000007c <port_to_output_PGM>:
      7c:	00 31 2d 29                                         .1-)

00000080 <digital_pin_to_port_PGM>:
      80:	02 01 01 01 01 01 01 01 01 03 03 03 03 03 02 02     ................
      90:	02 03                                               ..

00000092 <digital_pin_to_bit_mask_PGM>:
      92:	01 80 40 20 10 08 04 02 01 20 10 04 02 01 08 04     ..@ ..... ......
      a2:	02 08                                               ..

000000a4 <__ctors_start>:
__ctors_start():
      a4:	85 07       	cpc	r24, r21

000000a6 <__ctors_end>:
__dtors_end():
      a6:	11 24       	eor	r1, r1
      a8:	1f be       	out	0x3f, r1	; 63
      aa:	cf ef       	ldi	r28, 0xFF	; 255
      ac:	d4 e0       	ldi	r29, 0x04	; 4
      ae:	de bf       	out	0x3e, r29	; 62
      b0:	cd bf       	out	0x3d, r28	; 61

000000b2 <__do_clear_bss>:
__do_clear_bss():
/home/jenkins/workspace/avr-gcc-staging/label/debian7-x86_64/gcc-build/avr/avr35/libgcc/../../../../gcc/libgcc/config/avr/lib1funcs.S:2441
      b2:	21 e0       	ldi	r18, 0x01	; 1
/home/jenkins/workspace/avr-gcc-staging/label/debian7-x86_64/gcc-build/avr/avr35/libgcc/../../../../gcc/libgcc/config/avr/lib1funcs.S:2442
      b4:	a2 e4       	ldi	r26, 0x42	; 66
/home/jenkins/workspace/avr-gcc-staging/label/debian7-x86_64/gcc-build/avr/avr35/libgcc/../../../../gcc/libgcc/config/avr/lib1funcs.S:2443
      b6:	b1 e0       	ldi	r27, 0x01	; 1
/home/jenkins/workspace/avr-gcc-staging/label/debian7-x86_64/gcc-build/avr/avr35/libgcc/../../../../gcc/libgcc/config/avr/lib1funcs.S:2444
      b8:	01 c0       	rjmp	.+2      	; 0xbc <.do_clear_bss_start>

000000ba <.do_clear_bss_loop>:
/home/jenkins/workspace/avr-gcc-staging/label/debian7-x86_64/gcc-build/avr/avr35/libgcc/../../../../gcc/libgcc/config/avr/lib1funcs.S:2446
      ba:	1d 92       	st	X+, r1

000000bc <.do_clear_bss_start>:
/home/jenkins/workspace/avr-gcc-staging/label/debian7-x86_64/gcc-build/avr/avr35/libgcc/../../../../gcc/libgcc/config/avr/lib1funcs.S:2448
      bc:	a2 3f       	cpi	r26, 0xF2	; 242
/home/jenkins/workspace/avr-gcc-staging/label/debian7-x86_64/gcc-build/avr/avr35/libgcc/../../../../gcc/libgcc/config/avr/lib1funcs.S:2449
      be:	b2 07       	cpc	r27, r18
/home/jenkins/workspace/avr-gcc-staging/label/debian7-x86_64/gcc-build/avr/avr35/libgcc/../../../../gcc/libgcc/config/avr/lib1funcs.S:2450
      c0:	e1 f7       	brne	.-8      	; 0xba <.do_clear_bss_loop>

000000c2 <__do_copy_data>:
__do_copy_data():
/home/jenkins/workspace/avr-gcc-staging/label/debian7-x86_64/gcc-build/avr/avr35/libgcc/../../../../gcc/libgcc/config/avr/lib1funcs.S:2409
      c2:	11 e0       	ldi	r17, 0x01	; 1
/home/jenkins/workspace/avr-gcc-staging/label/debian7-x86_64/gcc-build/avr/avr35/libgcc/../../../../gcc/libgcc/config/avr/lib1funcs.S:2410
      c4:	a0 e0       	ldi	r26, 0x00	; 0
/home/jenkins/workspace/avr-gcc-staging/label/debian7-x86_64/gcc-build/avr/avr35/libgcc/../../../../gcc/libgcc/config/avr/lib1funcs.S:2411
      c6:	b1 e0       	ldi	r27, 0x01	; 1
/home/jenkins/workspace/avr-gcc-staging/label/debian7-x86_64/gcc-build/avr/avr35/libgcc/../../../../gcc/libgcc/config/avr/lib1funcs.S:2412
      c8:	e6 ef       	ldi	r30, 0xF6	; 246
/home/jenkins/workspace/avr-gcc-staging/label/debian7-x86_64/gcc-build/avr/avr35/libgcc/../../../../gcc/libgcc/config/avr/lib1funcs.S:2413
      ca:	f6 e1       	ldi	r31, 0x16	; 22
/home/jenkins/workspace/avr-gcc-staging/label/debian7-x86_64/gcc-build/avr/avr35/libgcc/../../../../gcc/libgcc/config/avr/lib1funcs.S:2414
      cc:	02 c0       	rjmp	.+4      	; 0xd2 <__do_copy_data+0x10>
/home/jenkins/workspace/avr-gcc-staging/label/debian7-x86_64/gcc-build/avr/avr35/libgcc/../../../../gcc/libgcc/config/avr/lib1funcs.S:2417
      ce:	05 90       	lpm	r0, Z+
/home/jenkins/workspace/avr-gcc-staging/label/debian7-x86_64/gcc-build/avr/avr35/libgcc/../../../../gcc/libgcc/config/avr/lib1funcs.S:2422
      d0:	0d 92       	st	X+, r0
/home/jenkins/workspace/avr-gcc-staging/label/debian7-x86_64/gcc-build/avr/avr35/libgcc/../../../../gcc/libgcc/config/avr/lib1funcs.S:2424
      d2:	a2 34       	cpi	r26, 0x42	; 66
/home/jenkins/workspace/avr-gcc-staging/label/debian7-x86_64/gcc-build/avr/avr35/libgcc/../../../../gcc/libgcc/config/avr/lib1funcs.S:2425
      d4:	b1 07       	cpc	r27, r17
/home/jenkins/workspace/avr-gcc-staging/label/debian7-x86_64/gcc-build/avr/avr35/libgcc/../../../../gcc/libgcc/config/avr/lib1funcs.S:2426
      d6:	d9 f7       	brne	.-10     	; 0xce <__do_copy_data+0xc>

000000d8 <__do_global_ctors>:
__do_global_ctors():
/home/jenkins/workspace/avr-gcc-staging/label/debian7-x86_64/gcc-build/avr/avr35/libgcc/../../../../gcc/libgcc/config/avr/lib1funcs.S:2466
      d8:	10 e0       	ldi	r17, 0x00	; 0
/home/jenkins/workspace/avr-gcc-staging/label/debian7-x86_64/gcc-build/avr/avr35/libgcc/../../../../gcc/libgcc/config/avr/lib1funcs.S:2467
      da:	c3 e5       	ldi	r28, 0x53	; 83
/home/jenkins/workspace/avr-gcc-staging/label/debian7-x86_64/gcc-build/avr/avr35/libgcc/../../../../gcc/libgcc/config/avr/lib1funcs.S:2468
      dc:	d0 e0       	ldi	r29, 0x00	; 0
/home/jenkins/workspace/avr-gcc-staging/label/debian7-x86_64/gcc-build/avr/avr35/libgcc/../../../../gcc/libgcc/config/avr/lib1funcs.S:2472
      de:	04 c0       	rjmp	.+8      	; 0xe8 <__do_global_ctors+0x10>
/home/jenkins/workspace/avr-gcc-staging/label/debian7-x86_64/gcc-build/avr/avr35/libgcc/../../../../gcc/libgcc/config/avr/lib1funcs.S:2474
      e0:	21 97       	sbiw	r28, 0x01	; 1
/home/jenkins/workspace/avr-gcc-staging/label/debian7-x86_64/gcc-build/avr/avr35/libgcc/../../../../gcc/libgcc/config/avr/lib1funcs.S:2480
      e2:	fe 01       	movw	r30, r28
/home/jenkins/workspace/avr-gcc-staging/label/debian7-x86_64/gcc-build/avr/avr35/libgcc/../../../../gcc/libgcc/config/avr/lib1funcs.S:2481
      e4:	0e 94 73 0b 	call	0x16e6	; 0x16e6 <__tablejump2__>
/home/jenkins/workspace/avr-gcc-staging/label/debian7-x86_64/gcc-build/avr/avr35/libgcc/../../../../gcc/libgcc/config/avr/lib1funcs.S:2483
      e8:	c2 35       	cpi	r28, 0x52	; 82
/home/jenkins/workspace/avr-gcc-staging/label/debian7-x86_64/gcc-build/avr/avr35/libgcc/../../../../gcc/libgcc/config/avr/lib1funcs.S:2484
      ea:	d1 07       	cpc	r29, r17
/home/jenkins/workspace/avr-gcc-staging/label/debian7-x86_64/gcc-build/avr/avr35/libgcc/../../../../gcc/libgcc/config/avr/lib1funcs.S:2489
      ec:	c9 f7       	brne	.-14     	; 0xe0 <__do_global_ctors+0x8>
      ee:	0e 94 cb 07 	call	0xf96	; 0xf96 <main>
      f2:	0c 94 79 0b 	jmp	0x16f2	; 0x16f2 <_exit>

000000f6 <__bad_interrupt>:
__vector_22():
      f6:	0c 94 00 00 	jmp	0	; 0x0 <__vectors>

000000fa <TwoWire::write(int) [clone .constprop.58]>:
write():
/home/user/.arduino15/packages/ATTinyCore/hardware/avr/1.5.2/libraries/Wire/src/Wire.cpp:507

// must be called in:
// slave tx event callback
// or after beginTransmission(address)
size_t TwoWire::write(uint8_t data) {
  if (transmitting) { // in master transmitter mode
      fa:	90 91 77 01 	lds	r25, 0x0177	; 0x800177 <TwoWire::transmitting>
      fe:	99 23       	and	r25, r25
     100:	a1 f0       	breq	.+40     	; 0x12a <TwoWire::write(int) [clone .constprop.58]+0x30>
/home/user/.arduino15/packages/ATTinyCore/hardware/avr/1.5.2/libraries/Wire/src/Wire.cpp:509
    // don't bother if buffer is full
    if (BufferLength >= TWI_BUFFER_SIZE) {
     102:	90 91 76 01 	lds	r25, 0x0176	; 0x800176 <TwoWire::BufferLength>
     106:	90 32       	cpi	r25, 0x20	; 32
     108:	40 f5       	brcc	.+80     	; 0x15a <TwoWire::write(int) [clone .constprop.58]+0x60>
/home/user/.arduino15/packages/ATTinyCore/hardware/avr/1.5.2/libraries/Wire/src/Wire.cpp:513
      return 0;
    }
    // put byte in tx buffer
    Buffer[BufferIndex] = data;
     10a:	90 91 75 01 	lds	r25, 0x0175	; 0x800175 <TwoWire::BufferIndex>
     10e:	e9 2f       	mov	r30, r25
     110:	f0 e0       	ldi	r31, 0x00	; 0
     112:	ee 5b       	subi	r30, 0xBE	; 190
     114:	fe 4f       	sbci	r31, 0xFE	; 254
     116:	80 83       	st	Z, r24
/home/user/.arduino15/packages/ATTinyCore/hardware/avr/1.5.2/libraries/Wire/src/Wire.cpp:514
    ++BufferIndex;
     118:	81 e0       	ldi	r24, 0x01	; 1
     11a:	89 0f       	add	r24, r25
     11c:	80 93 75 01 	sts	0x0175, r24	; 0x800175 <TwoWire::BufferIndex>
/home/user/.arduino15/packages/ATTinyCore/hardware/avr/1.5.2/libraries/Wire/src/Wire.cpp:516
    // update amount in buffer
    BufferLength = BufferIndex;
     120:	80 93 76 01 	sts	0x0176, r24	; 0x800176 <TwoWire::BufferLength>
/home/user/.arduino15/packages/ATTinyCore/hardware/avr/1.5.2/libraries/Wire/src/Wire.cpp:525
      return 0;
    }
    // reply to master
    USI_TWI_Transmit_Byte(data);
  }
  return 1;
     124:	81 e0       	ldi	r24, 0x01	; 1
     126:	90 e0       	ldi	r25, 0x00	; 0
     128:	08 95       	ret
USI_TWI_Space_In_Transmission_Buffer():
/home/user/.arduino15/packages/ATTinyCore/hardware/avr/1.5.2/libraries/Wire/src/USI_TWI_Slave/USI_TWI_Slave.c:144

// Check if there is space in the transmission buffer.
unsigned char USI_TWI_Space_In_Transmission_Buffer(void)
{
  unsigned char tmpTxHead;
  tmpTxHead = (TWI_TxHead + 1) & TWI_TX_BUFFER_MASK; // Calculate next buffer index.
     12a:	20 91 74 01 	lds	r18, 0x0174	; 0x800174 <TWI_TxHead>
/home/user/.arduino15/packages/ATTinyCore/hardware/avr/1.5.2/libraries/Wire/src/USI_TWI_Slave/USI_TWI_Slave.c:145
  return (TWI_TxTail - tmpTxHead) & TWI_TX_BUFFER_MASK; // Return 0 (FALSE) if the transmission buffer is full.
     12e:	90 91 73 01 	lds	r25, 0x0173	; 0x800173 <TWI_TxTail>
/home/user/.arduino15/packages/ATTinyCore/hardware/avr/1.5.2/libraries/Wire/src/USI_TWI_Slave/USI_TWI_Slave.c:144

// Check if there is space in the transmission buffer.
unsigned char USI_TWI_Space_In_Transmission_Buffer(void)
{
  unsigned char tmpTxHead;
  tmpTxHead = (TWI_TxHead + 1) & TWI_TX_BUFFER_MASK; // Calculate next buffer index.
     132:	2f 5f       	subi	r18, 0xFF	; 255
/home/user/.arduino15/packages/ATTinyCore/hardware/avr/1.5.2/libraries/Wire/src/USI_TWI_Slave/USI_TWI_Slave.c:145
  return (TWI_TxTail - tmpTxHead) & TWI_TX_BUFFER_MASK; // Return 0 (FALSE) if the transmission buffer is full.
     134:	92 1b       	sub	r25, r18
     136:	9f 70       	andi	r25, 0x0F	; 15
write():
/home/user/.arduino15/packages/ATTinyCore/hardware/avr/1.5.2/libraries/Wire/src/Wire.cpp:519
    ++BufferIndex;
    // update amount in buffer
    BufferLength = BufferIndex;
  } else { // in slave send mode
    // don't bother if buffer is full
    if (!USI_TWI_Space_In_Transmission_Buffer()) {
     138:	81 f0       	breq	.+32     	; 0x15a <TwoWire::write(int) [clone .constprop.58]+0x60>
USI_TWI_Transmit_Byte():
/home/user/.arduino15/packages/ATTinyCore/hardware/avr/1.5.2/libraries/Wire/src/USI_TWI_Slave/USI_TWI_Slave.c:100
// Puts data in the transmission buffer, Waits if buffer is full.
void USI_TWI_Transmit_Byte(unsigned char data)
{
  unsigned char tmphead;

  tmphead = (TWI_TxHead + 1) & TWI_TX_BUFFER_MASK; // Calculate buffer index.
     13a:	90 91 74 01 	lds	r25, 0x0174	; 0x800174 <TWI_TxHead>
     13e:	9f 5f       	subi	r25, 0xFF	; 255
     140:	9f 70       	andi	r25, 0x0F	; 15
/home/user/.arduino15/packages/ATTinyCore/hardware/avr/1.5.2/libraries/Wire/src/USI_TWI_Slave/USI_TWI_Slave.c:101
  while (tmphead == TWI_TxTail)
     142:	20 91 73 01 	lds	r18, 0x0173	; 0x800173 <TWI_TxTail>
     146:	92 17       	cp	r25, r18
     148:	e1 f3       	breq	.-8      	; 0x142 <TwoWire::write(int) [clone .constprop.58]+0x48>
/home/user/.arduino15/packages/ATTinyCore/hardware/avr/1.5.2/libraries/Wire/src/USI_TWI_Slave/USI_TWI_Slave.c:103
    ;                         // Wait for free space in buffer.
  TWI_TxBuf[tmphead] = data;    // Store data in buffer.
     14a:	e9 2f       	mov	r30, r25
     14c:	f0 e0       	ldi	r31, 0x00	; 0
     14e:	ee 5a       	subi	r30, 0xAE	; 174
     150:	fe 4f       	sbci	r31, 0xFE	; 254
     152:	80 83       	st	Z, r24
/home/user/.arduino15/packages/ATTinyCore/hardware/avr/1.5.2/libraries/Wire/src/USI_TWI_Slave/USI_TWI_Slave.c:104
  TWI_TxHead         = tmphead; // Store new index.
     154:	90 93 74 01 	sts	0x0174, r25	; 0x800174 <TWI_TxHead>
     158:	e5 cf       	rjmp	.-54     	; 0x124 <TwoWire::write(int) [clone .constprop.58]+0x2a>
write():
/home/user/.arduino15/packages/ATTinyCore/hardware/avr/1.5.2/libraries/Wire/src/Wire.cpp:510
// or after beginTransmission(address)
size_t TwoWire::write(uint8_t data) {
  if (transmitting) { // in master transmitter mode
    // don't bother if buffer is full
    if (BufferLength >= TWI_BUFFER_SIZE) {
      return 0;
     15a:	90 e0       	ldi	r25, 0x00	; 0
     15c:	80 e0       	ldi	r24, 0x00	; 0
/home/user/.arduino15/packages/ATTinyCore/hardware/avr/1.5.2/libraries/Wire/src/Wire.h:157
    uint8_t isActive(void);

    inline size_t write(unsigned long n) { return write((uint8_t)n); }
    inline size_t write(long n) { return write((uint8_t)n); }
    inline size_t write(unsigned int n) { return write((uint8_t)n); }
    inline size_t write(int n) { return write((uint8_t)n); }
     15e:	08 95       	ret

00000160 <TwoWire::beginTransmission(unsigned char) [clone .constprop.53]>:
beginTransmission():
/home/user/.arduino15/packages/ATTinyCore/hardware/avr/1.5.2/libraries/Wire/src/Wire.cpp:462
  return requestFrom((uint8_t)address, (uint8_t)quantity, (uint8_t)sendStop);
}

void TwoWire::beginTransmission(uint8_t address) {
  // indicate that we are transmitting
  transmitting = 1;
     160:	91 e0       	ldi	r25, 0x01	; 1
     162:	90 93 77 01 	sts	0x0177, r25	; 0x800177 <TwoWire::transmitting>
/home/user/.arduino15/packages/ATTinyCore/hardware/avr/1.5.2/libraries/Wire/src/Wire.cpp:464
  // set address of targeted slave and write mode
  Buffer[0] = (address << TWI_ADR_BITS) | (0 << TWI_READ_BIT);
     166:	88 0f       	add	r24, r24
     168:	80 93 42 01 	sts	0x0142, r24	; 0x800142 <__data_end>
/home/user/.arduino15/packages/ATTinyCore/hardware/avr/1.5.2/libraries/Wire/src/Wire.cpp:466
  // reset tx buffer iterator vars
  BufferIndex = 1; // reserved by slave address
     16c:	90 93 75 01 	sts	0x0175, r25	; 0x800175 <TwoWire::BufferIndex>
/home/user/.arduino15/packages/ATTinyCore/hardware/avr/1.5.2/libraries/Wire/src/Wire.cpp:467
  BufferLength = BufferIndex;
     170:	90 93 76 01 	sts	0x0176, r25	; 0x800176 <TwoWire::BufferLength>
/home/user/.arduino15/packages/ATTinyCore/hardware/avr/1.5.2/libraries/Wire/src/Wire.cpp:468
}
     174:	08 95       	ret

00000176 <Print::write(unsigned char const*, unsigned int)>:
write():
/home/user/.arduino15/packages/ATTinyCore/hardware/avr/1.5.2/cores/tinymodern/Print.cpp:34

// Public Methods //////////////////////////////////////////////////////////////

/* default implementation: may be overridden */
size_t Print::write(const uint8_t *buffer, size_t size)
{
     176:	cf 92       	push	r12
     178:	df 92       	push	r13
     17a:	ef 92       	push	r14
     17c:	ff 92       	push	r15
     17e:	0f 93       	push	r16
     180:	1f 93       	push	r17
     182:	cf 93       	push	r28
     184:	df 93       	push	r29
     186:	6c 01       	movw	r12, r24
     188:	eb 01       	movw	r28, r22
     18a:	7b 01       	movw	r14, r22
     18c:	e4 0e       	add	r14, r20
     18e:	f5 1e       	adc	r15, r21
/home/user/.arduino15/packages/ATTinyCore/hardware/avr/1.5.2/cores/tinymodern/Print.cpp:35
  size_t n = 0;
     190:	10 e0       	ldi	r17, 0x00	; 0
     192:	00 e0       	ldi	r16, 0x00	; 0
/home/user/.arduino15/packages/ATTinyCore/hardware/avr/1.5.2/cores/tinymodern/Print.cpp:36
  while (size--) {
     194:	ce 15       	cp	r28, r14
     196:	df 05       	cpc	r29, r15
     198:	61 f0       	breq	.+24     	; 0x1b2 <Print::write(unsigned char const*, unsigned int)+0x3c>
/home/user/.arduino15/packages/ATTinyCore/hardware/avr/1.5.2/cores/tinymodern/Print.cpp:37
    n += write(*buffer++);
     19a:	69 91       	ld	r22, Y+
     19c:	d6 01       	movw	r26, r12
     19e:	ed 91       	ld	r30, X+
     1a0:	fc 91       	ld	r31, X
     1a2:	01 90       	ld	r0, Z+
     1a4:	f0 81       	ld	r31, Z
     1a6:	e0 2d       	mov	r30, r0
     1a8:	c6 01       	movw	r24, r12
     1aa:	09 95       	icall
     1ac:	08 0f       	add	r16, r24
     1ae:	19 1f       	adc	r17, r25
     1b0:	f1 cf       	rjmp	.-30     	; 0x194 <Print::write(unsigned char const*, unsigned int)+0x1e>
/home/user/.arduino15/packages/ATTinyCore/hardware/avr/1.5.2/cores/tinymodern/Print.cpp:40
  }
  return n;
}
     1b2:	c8 01       	movw	r24, r16
     1b4:	df 91       	pop	r29
     1b6:	cf 91       	pop	r28
     1b8:	1f 91       	pop	r17
     1ba:	0f 91       	pop	r16
     1bc:	ff 90       	pop	r15
     1be:	ef 90       	pop	r14
     1c0:	df 90       	pop	r13
     1c2:	cf 90       	pop	r12
     1c4:	08 95       	ret

000001c6 <HardwareSerial::availableForWrite()>:
availableForWrite():
/home/user/.arduino15/packages/ATTinyCore/hardware/avr/1.5.2/cores/tinymodern/HardwareSerial.cpp:198
{
  tx_buffer_index_t head;
  tx_buffer_index_t tail;

  TX_BUFFER_ATOMIC {
    head = _tx_buffer_head;
     1c6:	fc 01       	movw	r30, r24
     1c8:	53 8d       	ldd	r21, Z+27	; 0x1b
/home/user/.arduino15/packages/ATTinyCore/hardware/avr/1.5.2/cores/tinymodern/HardwareSerial.cpp:199
    tail = _tx_buffer_tail;
     1ca:	44 8d       	ldd	r20, Z+28	; 0x1c
     1cc:	25 2f       	mov	r18, r21
     1ce:	30 e0       	ldi	r19, 0x00	; 0
     1d0:	84 2f       	mov	r24, r20
     1d2:	90 e0       	ldi	r25, 0x00	; 0
/home/user/.arduino15/packages/ATTinyCore/hardware/avr/1.5.2/cores/tinymodern/HardwareSerial.cpp:201
  }
  if (head >= tail) return SERIAL_TX_BUFFER_SIZE - 1 - head + tail;
     1d4:	82 1b       	sub	r24, r18
     1d6:	93 0b       	sbc	r25, r19
     1d8:	54 17       	cp	r21, r20
     1da:	10 f0       	brcs	.+4      	; 0x1e0 <HardwareSerial::availableForWrite()+0x1a>
     1dc:	4f 96       	adiw	r24, 0x1f	; 31
     1de:	08 95       	ret
/home/user/.arduino15/packages/ATTinyCore/hardware/avr/1.5.2/cores/tinymodern/HardwareSerial.cpp:202
  return tail - head - 1;
     1e0:	01 97       	sbiw	r24, 0x01	; 1
/home/user/.arduino15/packages/ATTinyCore/hardware/avr/1.5.2/cores/tinymodern/HardwareSerial.cpp:203
}
     1e2:	08 95       	ret

000001e4 <HardwareSerial::read()>:
read():
/home/user/.arduino15/packages/ATTinyCore/hardware/avr/1.5.2/cores/tinymodern/HardwareSerial.cpp:181
    return _rx_buffer[_rx_buffer_tail];
  }
}

int HardwareSerial::read(void)
{
     1e4:	fc 01       	movw	r30, r24
/home/user/.arduino15/packages/ATTinyCore/hardware/avr/1.5.2/cores/tinymodern/HardwareSerial.cpp:183
  // if the head isn't ahead of the tail, we don't have any characters
  if (_rx_buffer_head == _rx_buffer_tail) {
     1e6:	91 8d       	ldd	r25, Z+25	; 0x19
     1e8:	82 8d       	ldd	r24, Z+26	; 0x1a
     1ea:	98 17       	cp	r25, r24
     1ec:	61 f0       	breq	.+24     	; 0x206 <HardwareSerial::read()+0x22>
/home/user/.arduino15/packages/ATTinyCore/hardware/avr/1.5.2/cores/tinymodern/HardwareSerial.cpp:186
    return -1;
  } else {
    unsigned char c = _rx_buffer[_rx_buffer_tail];
     1ee:	a2 8d       	ldd	r26, Z+26	; 0x1a
     1f0:	ae 0f       	add	r26, r30
     1f2:	bf 2f       	mov	r27, r31
     1f4:	b1 1d       	adc	r27, r1
     1f6:	5d 96       	adiw	r26, 0x1d	; 29
     1f8:	8c 91       	ld	r24, X
/home/user/.arduino15/packages/ATTinyCore/hardware/avr/1.5.2/cores/tinymodern/HardwareSerial.cpp:187
    _rx_buffer_tail = (rx_buffer_index_t)(_rx_buffer_tail + 1) % SERIAL_RX_BUFFER_SIZE;
     1fa:	92 8d       	ldd	r25, Z+26	; 0x1a
     1fc:	9f 5f       	subi	r25, 0xFF	; 255
     1fe:	9f 71       	andi	r25, 0x1F	; 31
     200:	92 8f       	std	Z+26, r25	; 0x1a
/home/user/.arduino15/packages/ATTinyCore/hardware/avr/1.5.2/cores/tinymodern/HardwareSerial.cpp:188
    return c;
     202:	90 e0       	ldi	r25, 0x00	; 0
     204:	08 95       	ret
/home/user/.arduino15/packages/ATTinyCore/hardware/avr/1.5.2/cores/tinymodern/HardwareSerial.cpp:184

int HardwareSerial::read(void)
{
  // if the head isn't ahead of the tail, we don't have any characters
  if (_rx_buffer_head == _rx_buffer_tail) {
    return -1;
     206:	8f ef       	ldi	r24, 0xFF	; 255
     208:	9f ef       	ldi	r25, 0xFF	; 255
/home/user/.arduino15/packages/ATTinyCore/hardware/avr/1.5.2/cores/tinymodern/HardwareSerial.cpp:190
  } else {
    unsigned char c = _rx_buffer[_rx_buffer_tail];
    _rx_buffer_tail = (rx_buffer_index_t)(_rx_buffer_tail + 1) % SERIAL_RX_BUFFER_SIZE;
    return c;
  }
}
     20a:	08 95       	ret

0000020c <HardwareSerial::peek()>:
peek():
/home/user/.arduino15/packages/ATTinyCore/hardware/avr/1.5.2/cores/tinymodern/HardwareSerial.cpp:172
{
  return ((unsigned int)(SERIAL_RX_BUFFER_SIZE + _rx_buffer_head - _rx_buffer_tail)) % SERIAL_RX_BUFFER_SIZE;
}

int HardwareSerial::peek(void)
{
     20c:	fc 01       	movw	r30, r24
/home/user/.arduino15/packages/ATTinyCore/hardware/avr/1.5.2/cores/tinymodern/HardwareSerial.cpp:173
  if (_rx_buffer_head == _rx_buffer_tail) {
     20e:	91 8d       	ldd	r25, Z+25	; 0x19
     210:	82 8d       	ldd	r24, Z+26	; 0x1a
     212:	98 17       	cp	r25, r24
     214:	31 f0       	breq	.+12     	; 0x222 <HardwareSerial::peek()+0x16>
/home/user/.arduino15/packages/ATTinyCore/hardware/avr/1.5.2/cores/tinymodern/HardwareSerial.cpp:176
    return -1;
  } else {
    return _rx_buffer[_rx_buffer_tail];
     216:	82 8d       	ldd	r24, Z+26	; 0x1a
     218:	e8 0f       	add	r30, r24
     21a:	f1 1d       	adc	r31, r1
     21c:	85 8d       	ldd	r24, Z+29	; 0x1d
     21e:	90 e0       	ldi	r25, 0x00	; 0
     220:	08 95       	ret
/home/user/.arduino15/packages/ATTinyCore/hardware/avr/1.5.2/cores/tinymodern/HardwareSerial.cpp:174
}

int HardwareSerial::peek(void)
{
  if (_rx_buffer_head == _rx_buffer_tail) {
    return -1;
     222:	8f ef       	ldi	r24, 0xFF	; 255
     224:	9f ef       	ldi	r25, 0xFF	; 255
/home/user/.arduino15/packages/ATTinyCore/hardware/avr/1.5.2/cores/tinymodern/HardwareSerial.cpp:178
  } else {
    return _rx_buffer[_rx_buffer_tail];
  }
}
     226:	08 95       	ret

00000228 <HardwareSerial::available()>:
available():
/home/user/.arduino15/packages/ATTinyCore/hardware/avr/1.5.2/cores/tinymodern/HardwareSerial.cpp:167
  // clear any received data
  _rx_buffer_head = _rx_buffer_tail;
}

int HardwareSerial::available(void)
{
     228:	fc 01       	movw	r30, r24
/home/user/.arduino15/packages/ATTinyCore/hardware/avr/1.5.2/cores/tinymodern/HardwareSerial.cpp:168
  return ((unsigned int)(SERIAL_RX_BUFFER_SIZE + _rx_buffer_head - _rx_buffer_tail)) % SERIAL_RX_BUFFER_SIZE;
     22a:	91 8d       	ldd	r25, Z+25	; 0x19
     22c:	22 8d       	ldd	r18, Z+26	; 0x1a
     22e:	89 2f       	mov	r24, r25
     230:	90 e0       	ldi	r25, 0x00	; 0
     232:	80 96       	adiw	r24, 0x20	; 32
     234:	82 1b       	sub	r24, r18
     236:	91 09       	sbc	r25, r1
/home/user/.arduino15/packages/ATTinyCore/hardware/avr/1.5.2/cores/tinymodern/HardwareSerial.cpp:169
}
     238:	8f 71       	andi	r24, 0x1F	; 31
     23a:	99 27       	eor	r25, r25
     23c:	08 95       	ret

0000023e <HardwareSerial::_tx_udr_empty_irq()>:
_tx_udr_empty_irq():
/home/user/.arduino15/packages/ATTinyCore/hardware/avr/1.5.2/cores/tinymodern/HardwareSerial.cpp:90
#endif

// Actual interrupt handlers //////////////////////////////////////////////////////////////

void HardwareSerial::_tx_udr_empty_irq(void)
{
     23e:	fc 01       	movw	r30, r24
/home/user/.arduino15/packages/ATTinyCore/hardware/avr/1.5.2/cores/tinymodern/HardwareSerial.cpp:93
  // If interrupts are enabled, there must be more data in the output
  // buffer. Send the next byte
  unsigned char c = _tx_buffer[_tx_buffer_tail];
     240:	a4 8d       	ldd	r26, Z+28	; 0x1c
     242:	a8 0f       	add	r26, r24
     244:	b9 2f       	mov	r27, r25
     246:	b1 1d       	adc	r27, r1
     248:	dd 96       	adiw	r26, 0x3d	; 61
     24a:	2c 91       	ld	r18, X
/home/user/.arduino15/packages/ATTinyCore/hardware/avr/1.5.2/cores/tinymodern/HardwareSerial.cpp:94
  _tx_buffer_tail = (_tx_buffer_tail + 1) % SERIAL_TX_BUFFER_SIZE;
     24c:	84 8d       	ldd	r24, Z+28	; 0x1c
     24e:	90 e0       	ldi	r25, 0x00	; 0
     250:	01 96       	adiw	r24, 0x01	; 1
     252:	8f 71       	andi	r24, 0x1F	; 31
     254:	99 27       	eor	r25, r25
     256:	84 8f       	std	Z+28, r24	; 0x1c
/home/user/.arduino15/packages/ATTinyCore/hardware/avr/1.5.2/cores/tinymodern/HardwareSerial.cpp:96

  *_udr = c;
     258:	a6 89       	ldd	r26, Z+22	; 0x16
     25a:	b7 89       	ldd	r27, Z+23	; 0x17
     25c:	2c 93       	st	X, r18
/home/user/.arduino15/packages/ATTinyCore/hardware/avr/1.5.2/cores/tinymodern/HardwareSerial.cpp:104
  // location". This makes sure flush() won't return until the bytes
  // actually got written. Other r/w bits are preserved, and zeroes
  // written to the rest.

#ifdef MPCM0
  *_ucsra = ((*_ucsra) & ((1 << U2X0) | (1 << MPCM0))) | (1 << TXC0);
     25e:	a0 89       	ldd	r26, Z+16	; 0x10
     260:	b1 89       	ldd	r27, Z+17	; 0x11
     262:	8c 91       	ld	r24, X
     264:	83 70       	andi	r24, 0x03	; 3
     266:	80 64       	ori	r24, 0x40	; 64
     268:	8c 93       	st	X, r24
/home/user/.arduino15/packages/ATTinyCore/hardware/avr/1.5.2/cores/tinymodern/HardwareSerial.cpp:109
#else
  *_ucsra = ((*_ucsra) & ((1 << U2X0) | (1 << TXC0)));
#endif

  if (_tx_buffer_head == _tx_buffer_tail) {
     26a:	93 8d       	ldd	r25, Z+27	; 0x1b
     26c:	84 8d       	ldd	r24, Z+28	; 0x1c
     26e:	98 13       	cpse	r25, r24
     270:	06 c0       	rjmp	.+12     	; 0x27e <HardwareSerial::_tx_udr_empty_irq()+0x40>
/home/user/.arduino15/packages/ATTinyCore/hardware/avr/1.5.2/cores/tinymodern/HardwareSerial.cpp:111
    // Buffer empty, so disable interrupts
    cbi(*_ucsrb, UDRIE0);
     272:	02 88       	ldd	r0, Z+18	; 0x12
     274:	f3 89       	ldd	r31, Z+19	; 0x13
     276:	e0 2d       	mov	r30, r0
     278:	80 81       	ld	r24, Z
     27a:	8f 7d       	andi	r24, 0xDF	; 223
     27c:	80 83       	st	Z, r24
/home/user/.arduino15/packages/ATTinyCore/hardware/avr/1.5.2/cores/tinymodern/HardwareSerial.cpp:113
  }
}
     27e:	08 95       	ret

00000280 <HardwareSerial::write(unsigned char)>:
write():
/home/user/.arduino15/packages/ATTinyCore/hardware/avr/1.5.2/cores/tinymodern/HardwareSerial.cpp:226
  // If we get here, nothing is queued anymore (DRIE is disabled) and
  // the hardware finished transmission (TXC is set).
}

size_t HardwareSerial::write(uint8_t c)
{
     280:	ef 92       	push	r14
     282:	ff 92       	push	r15
     284:	0f 93       	push	r16
     286:	1f 93       	push	r17
     288:	cf 93       	push	r28
     28a:	df 93       	push	r29
     28c:	ec 01       	movw	r28, r24
/home/user/.arduino15/packages/ATTinyCore/hardware/avr/1.5.2/cores/tinymodern/HardwareSerial.cpp:227
  _written = true;
     28e:	81 e0       	ldi	r24, 0x01	; 1
     290:	88 8f       	std	Y+24, r24	; 0x18
/home/user/.arduino15/packages/ATTinyCore/hardware/avr/1.5.2/cores/tinymodern/HardwareSerial.cpp:232
  // If the buffer and the data register is empty, just write the byte
  // to the data register and be done. This shortcut helps
  // significantly improve the effective datarate at high (>
  // 500kbit/s) bitrates, where interrupt overhead becomes a slowdown.
  if (_tx_buffer_head == _tx_buffer_tail && bit_is_set(*_ucsra, UDRE0)) {
     292:	9b 8d       	ldd	r25, Y+27	; 0x1b
     294:	8c 8d       	ldd	r24, Y+28	; 0x1c
     296:	98 13       	cpse	r25, r24
     298:	1a c0       	rjmp	.+52     	; 0x2ce <HardwareSerial::write(unsigned char)+0x4e>
     29a:	e8 89       	ldd	r30, Y+16	; 0x10
     29c:	f9 89       	ldd	r31, Y+17	; 0x11
     29e:	80 81       	ld	r24, Z
     2a0:	85 ff       	sbrs	r24, 5
     2a2:	15 c0       	rjmp	.+42     	; 0x2ce <HardwareSerial::write(unsigned char)+0x4e>
/home/user/.arduino15/packages/ATTinyCore/hardware/avr/1.5.2/cores/tinymodern/HardwareSerial.cpp:241
    // So writing UDR must happen first.
    // Writing UDR and clearing TC must be done atomically, otherwise
    // interrupts might delay the TXC clear so the byte written to UDR
    // is transmitted (setting TXC) before clearing TXC. Then TXC will
    // be cleared when no bytes are left, causing flush() to hang
    ATOMIC_BLOCK(ATOMIC_RESTORESTATE) {
     2a4:	9f b7       	in	r25, 0x3f	; 63
__iCliRetVal():
/home/user/.arduino15/packages/arduino/tools/avr-gcc/7.3.0-atmel3.6.1-arduino7/avr/include/util/atomic.h:50
    return 1;
}

static __inline__ uint8_t __iCliRetVal(void)
{
    cli();
     2a6:	f8 94       	cli
write():
/home/user/.arduino15/packages/ATTinyCore/hardware/avr/1.5.2/cores/tinymodern/HardwareSerial.cpp:242
      *_udr = c;
     2a8:	ee 89       	ldd	r30, Y+22	; 0x16
     2aa:	ff 89       	ldd	r31, Y+23	; 0x17
     2ac:	60 83       	st	Z, r22
/home/user/.arduino15/packages/ATTinyCore/hardware/avr/1.5.2/cores/tinymodern/HardwareSerial.cpp:244
#ifdef MPCM0
      *_ucsra = ((*_ucsra) & ((1 << U2X0) | (1 << MPCM0))) | (1 << TXC0);
     2ae:	e8 89       	ldd	r30, Y+16	; 0x10
     2b0:	f9 89       	ldd	r31, Y+17	; 0x11
     2b2:	80 81       	ld	r24, Z
     2b4:	83 70       	andi	r24, 0x03	; 3
     2b6:	80 64       	ori	r24, 0x40	; 64
/home/user/.arduino15/packages/ATTinyCore/hardware/avr/1.5.2/cores/tinymodern/HardwareSerial.cpp:275
  // make atomic to prevent execution of ISR between setting the
  // head pointer and setting the interrupt flag resulting in buffer
  // retransmission
  ATOMIC_BLOCK(ATOMIC_RESTORESTATE) {
    _tx_buffer_head = i;
    sbi(*_ucsrb, UDRIE0);
     2b8:	80 83       	st	Z, r24
__iRestore():
/home/user/.arduino15/packages/arduino/tools/avr-gcc/7.3.0-atmel3.6.1-arduino7/avr/include/util/atomic.h:70
    (void)__s;
}

static __inline__ void __iRestore(const  uint8_t *__s)
{
    SREG = *__s;
     2ba:	9f bf       	out	0x3f, r25	; 63
write():
/home/user/.arduino15/packages/ATTinyCore/hardware/avr/1.5.2/cores/tinymodern/HardwareSerial.cpp:279
  }

  return 1;
}
     2bc:	81 e0       	ldi	r24, 0x01	; 1
     2be:	90 e0       	ldi	r25, 0x00	; 0
     2c0:	df 91       	pop	r29
     2c2:	cf 91       	pop	r28
     2c4:	1f 91       	pop	r17
     2c6:	0f 91       	pop	r16
     2c8:	ff 90       	pop	r15
     2ca:	ef 90       	pop	r14
     2cc:	08 95       	ret
     2ce:	f6 2e       	mov	r15, r22
/home/user/.arduino15/packages/ATTinyCore/hardware/avr/1.5.2/cores/tinymodern/HardwareSerial.cpp:251
      *_ucsra = ((*_ucsra) & ((1 << U2X0) | (1 << TXC0)));
#endif
    }
    return 1;
  }
  tx_buffer_index_t i = (_tx_buffer_head + 1) % SERIAL_TX_BUFFER_SIZE;
     2d0:	0b 8d       	ldd	r16, Y+27	; 0x1b
     2d2:	10 e0       	ldi	r17, 0x00	; 0
     2d4:	0f 5f       	subi	r16, 0xFF	; 255
     2d6:	1f 4f       	sbci	r17, 0xFF	; 255
     2d8:	0f 71       	andi	r16, 0x1F	; 31
     2da:	11 27       	eor	r17, r17
     2dc:	e0 2e       	mov	r14, r16
/home/user/.arduino15/packages/ATTinyCore/hardware/avr/1.5.2/cores/tinymodern/HardwareSerial.cpp:255

  // If the output buffer is full, there's nothing for it other than to
  // wait for the interrupt handler to empty it a bit
  while (i == _tx_buffer_tail) {
     2de:	8c 8d       	ldd	r24, Y+28	; 0x1c
     2e0:	8e 11       	cpse	r24, r14
     2e2:	0c c0       	rjmp	.+24     	; 0x2fc <HardwareSerial::write(unsigned char)+0x7c>
/home/user/.arduino15/packages/ATTinyCore/hardware/avr/1.5.2/cores/tinymodern/HardwareSerial.cpp:256
    if (bit_is_clear(SREG, SREG_I)) {
     2e4:	0f b6       	in	r0, 0x3f	; 63
     2e6:	07 fc       	sbrc	r0, 7
     2e8:	fa cf       	rjmp	.-12     	; 0x2de <HardwareSerial::write(unsigned char)+0x5e>
/home/user/.arduino15/packages/ATTinyCore/hardware/avr/1.5.2/cores/tinymodern/HardwareSerial.cpp:261
      // Interrupts are disabled, so we'll have to poll the data
      // register empty flag ourselves. If it is set, pretend an
      // interrupt has happened and call the handler to free up
      // space for us.
      if(bit_is_set(*_ucsra, UDRE0))
     2ea:	e8 89       	ldd	r30, Y+16	; 0x10
     2ec:	f9 89       	ldd	r31, Y+17	; 0x11
     2ee:	80 81       	ld	r24, Z
     2f0:	85 ff       	sbrs	r24, 5
     2f2:	f5 cf       	rjmp	.-22     	; 0x2de <HardwareSerial::write(unsigned char)+0x5e>
/home/user/.arduino15/packages/ATTinyCore/hardware/avr/1.5.2/cores/tinymodern/HardwareSerial.cpp:262
  _tx_udr_empty_irq();
     2f4:	ce 01       	movw	r24, r28
     2f6:	0e 94 1f 01 	call	0x23e	; 0x23e <HardwareSerial::_tx_udr_empty_irq()>
     2fa:	f1 cf       	rjmp	.-30     	; 0x2de <HardwareSerial::write(unsigned char)+0x5e>
/home/user/.arduino15/packages/ATTinyCore/hardware/avr/1.5.2/cores/tinymodern/HardwareSerial.cpp:268
    } else {
      // nop, the interrupt handler will free up space for us
    }
  }

  _tx_buffer[_tx_buffer_head] = c;
     2fc:	eb 8d       	ldd	r30, Y+27	; 0x1b
     2fe:	ec 0f       	add	r30, r28
     300:	fd 2f       	mov	r31, r29
     302:	f1 1d       	adc	r31, r1
     304:	f5 ae       	std	Z+61, r15	; 0x3d
/home/user/.arduino15/packages/ATTinyCore/hardware/avr/1.5.2/cores/tinymodern/HardwareSerial.cpp:273

  // make atomic to prevent execution of ISR between setting the
  // head pointer and setting the interrupt flag resulting in buffer
  // retransmission
  ATOMIC_BLOCK(ATOMIC_RESTORESTATE) {
     306:	9f b7       	in	r25, 0x3f	; 63
__iCliRetVal():
/home/user/.arduino15/packages/arduino/tools/avr-gcc/7.3.0-atmel3.6.1-arduino7/avr/include/util/atomic.h:50
    return 1;
}

static __inline__ uint8_t __iCliRetVal(void)
{
    cli();
     308:	f8 94       	cli
write():
/home/user/.arduino15/packages/ATTinyCore/hardware/avr/1.5.2/cores/tinymodern/HardwareSerial.cpp:274
    _tx_buffer_head = i;
     30a:	0b 8f       	std	Y+27, r16	; 0x1b
/home/user/.arduino15/packages/ATTinyCore/hardware/avr/1.5.2/cores/tinymodern/HardwareSerial.cpp:275
    sbi(*_ucsrb, UDRIE0);
     30c:	ea 89       	ldd	r30, Y+18	; 0x12
     30e:	fb 89       	ldd	r31, Y+19	; 0x13
     310:	80 81       	ld	r24, Z
     312:	80 62       	ori	r24, 0x20	; 32
     314:	d1 cf       	rjmp	.-94     	; 0x2b8 <HardwareSerial::write(unsigned char)+0x38>

00000316 <Print::println() [clone .constprop.27]>:
println():
/home/user/.arduino15/packages/ATTinyCore/hardware/avr/1.5.2/cores/tinymodern/Print.cpp:123
size_t Print::print(const Printable& x)
{
  return x.printTo(*this);
}

size_t Print::println(void)
     316:	cf 93       	push	r28
     318:	df 93       	push	r29
print():
/home/user/.arduino15/packages/ATTinyCore/hardware/avr/1.5.2/cores/tinymodern/Print.cpp:66
  return write(str);
}

size_t Print::print(char c)
{
  return write(c);
     31a:	6d e0       	ldi	r22, 0x0D	; 13
     31c:	88 e7       	ldi	r24, 0x78	; 120
     31e:	91 e0       	ldi	r25, 0x01	; 1
     320:	0e 94 40 01 	call	0x280	; 0x280 <HardwareSerial::write(unsigned char)>
     324:	ec 01       	movw	r28, r24
     326:	6a e0       	ldi	r22, 0x0A	; 10
     328:	88 e7       	ldi	r24, 0x78	; 120
     32a:	91 e0       	ldi	r25, 0x01	; 1
     32c:	0e 94 40 01 	call	0x280	; 0x280 <HardwareSerial::write(unsigned char)>
println():
/home/user/.arduino15/packages/ATTinyCore/hardware/avr/1.5.2/cores/tinymodern/Print.cpp:128
size_t Print::println(void)
{
  size_t n = print('\r');
  n += print('\n');
  return n;
}
     330:	8c 0f       	add	r24, r28
     332:	9d 1f       	adc	r25, r29
     334:	df 91       	pop	r29
     336:	cf 91       	pop	r28
     338:	08 95       	ret

0000033a <HardwareSerial::flush()>:
flush():
/home/user/.arduino15/packages/ATTinyCore/hardware/avr/1.5.2/cores/tinymodern/HardwareSerial.cpp:206
  if (head >= tail) return SERIAL_TX_BUFFER_SIZE - 1 - head + tail;
  return tail - head - 1;
}

void HardwareSerial::flush()
{
     33a:	cf 93       	push	r28
     33c:	df 93       	push	r29
     33e:	ec 01       	movw	r28, r24
/home/user/.arduino15/packages/ATTinyCore/hardware/avr/1.5.2/cores/tinymodern/HardwareSerial.cpp:210
  // If we have never written a byte, no need to flush. This special
  // case is needed since there is no way to force the TXC (transmit
  // complete) bit to 1 during initialization
  if (!_written)
     340:	88 8d       	ldd	r24, Y+24	; 0x18
     342:	88 23       	and	r24, r24
     344:	b9 f0       	breq	.+46     	; 0x374 <HardwareSerial::flush()+0x3a>
/home/user/.arduino15/packages/ATTinyCore/hardware/avr/1.5.2/cores/tinymodern/HardwareSerial.cpp:213
    return;

  while (bit_is_set(*_ucsrb, UDRIE0) || bit_is_clear(*_ucsra, TXC0)) {
     346:	aa 89       	ldd	r26, Y+18	; 0x12
     348:	bb 89       	ldd	r27, Y+19	; 0x13
     34a:	e8 89       	ldd	r30, Y+16	; 0x10
     34c:	f9 89       	ldd	r31, Y+17	; 0x11
     34e:	8c 91       	ld	r24, X
     350:	85 fd       	sbrc	r24, 5
     352:	03 c0       	rjmp	.+6      	; 0x35a <HardwareSerial::flush()+0x20>
     354:	80 81       	ld	r24, Z
     356:	86 fd       	sbrc	r24, 6
     358:	0d c0       	rjmp	.+26     	; 0x374 <HardwareSerial::flush()+0x3a>
/home/user/.arduino15/packages/ATTinyCore/hardware/avr/1.5.2/cores/tinymodern/HardwareSerial.cpp:214
    if (bit_is_clear(SREG, SREG_I) && bit_is_set(*_ucsrb, UDRIE0))
     35a:	0f b6       	in	r0, 0x3f	; 63
     35c:	07 fc       	sbrc	r0, 7
     35e:	f7 cf       	rjmp	.-18     	; 0x34e <HardwareSerial::flush()+0x14>
     360:	8c 91       	ld	r24, X
     362:	85 ff       	sbrs	r24, 5
     364:	f2 cf       	rjmp	.-28     	; 0x34a <HardwareSerial::flush()+0x10>
/home/user/.arduino15/packages/ATTinyCore/hardware/avr/1.5.2/cores/tinymodern/HardwareSerial.cpp:218
  // Interrupts are globally disabled, but the DR empty
  // interrupt should be enabled, so poll the DR empty flag to
  // prevent deadlock
  if (bit_is_set(*_ucsra, UDRE0))
     366:	80 81       	ld	r24, Z
     368:	85 ff       	sbrs	r24, 5
     36a:	ed cf       	rjmp	.-38     	; 0x346 <HardwareSerial::flush()+0xc>
/home/user/.arduino15/packages/ATTinyCore/hardware/avr/1.5.2/cores/tinymodern/HardwareSerial.cpp:219
    _tx_udr_empty_irq();
     36c:	ce 01       	movw	r24, r28
     36e:	0e 94 1f 01 	call	0x23e	; 0x23e <HardwareSerial::_tx_udr_empty_irq()>
     372:	e9 cf       	rjmp	.-46     	; 0x346 <HardwareSerial::flush()+0xc>
/home/user/.arduino15/packages/ATTinyCore/hardware/avr/1.5.2/cores/tinymodern/HardwareSerial.cpp:223
  }
  // If we get here, nothing is queued anymore (DRIE is disabled) and
  // the hardware finished transmission (TXC is set).
}
     374:	df 91       	pop	r29
     376:	cf 91       	pop	r28
     378:	08 95       	ret

0000037a <digitalWrite>:
digitalWrite():
/home/user/.arduino15/packages/ATTinyCore/hardware/avr/1.5.2/cores/tinymodern/wiring_digital.c:181
}

#if defined(__AVR_ATtinyX41__ ) || defined(__AVR_ATtiny1634__) || defined(__AVR_ATtiny828__)

void digitalWrite(uint8_t pin, uint8_t val)
{
     37a:	cf 93       	push	r28
     37c:	df 93       	push	r29
/home/user/.arduino15/packages/ATTinyCore/hardware/avr/1.5.2/cores/tinymodern/wiring_digital.c:183
  #ifndef __AVR_ATtiny828__
  if (pin&64) {pin=analogInputToDigitalPin((pin&63));}
     37e:	86 ff       	sbrs	r24, 6
     380:	07 c0       	rjmp	.+14     	; 0x390 <digitalWrite+0x16>
     382:	98 2f       	mov	r25, r24
     384:	9f 73       	andi	r25, 0x3F	; 63
     386:	85 e0       	ldi	r24, 0x05	; 5
     388:	96 30       	cpi	r25, 0x06	; 6
     38a:	08 f0       	brcs	.+2      	; 0x38e <digitalWrite+0x14>
     38c:	86 e1       	ldi	r24, 0x16	; 22
     38e:	89 1b       	sub	r24, r25
/home/user/.arduino15/packages/ATTinyCore/hardware/avr/1.5.2/cores/tinymodern/wiring_digital.c:185
  #endif
  uint8_t bit = digitalPinToBitMask(pin);
     390:	a8 2f       	mov	r26, r24
     392:	b0 e0       	ldi	r27, 0x00	; 0
     394:	fd 01       	movw	r30, r26
     396:	ee 56       	subi	r30, 0x6E	; 110
     398:	ff 4f       	sbci	r31, 0xFF	; 255
     39a:	24 91       	lpm	r18, Z
/home/user/.arduino15/packages/ATTinyCore/hardware/avr/1.5.2/cores/tinymodern/wiring_digital.c:186
  uint8_t port = digitalPinToPort(pin);
     39c:	a0 58       	subi	r26, 0x80	; 128
     39e:	bf 4f       	sbci	r27, 0xFF	; 255
     3a0:	fd 01       	movw	r30, r26
     3a2:	a4 91       	lpm	r26, Z
/home/user/.arduino15/packages/ATTinyCore/hardware/avr/1.5.2/cores/tinymodern/wiring_digital.c:189
  volatile uint8_t *out, *pue;

  if (port == NOT_A_PIN) return;
     3a4:	aa 23       	and	r26, r26
     3a6:	e9 f0       	breq	.+58     	; 0x3e2 <digitalWrite+0x68>
turnOffPWM():
/home/user/.arduino15/packages/ATTinyCore/hardware/avr/1.5.2/cores/tinymodern/wiring_digital.c:123
// each digitalread or write.
//
__attribute__((always_inline)) static inline void turnOffPWM( uint8_t pin )
{
  #if CORE_PWM_COUNT >= 1
    if ( pin == CORE_PWM0_PIN )
     3a8:	8d 30       	cpi	r24, 0x0D	; 13
     3aa:	f1 f4       	brne	.+60     	; 0x3e8 <digitalWrite+0x6e>
Timer0_SetCompareOutputModeA():
/home/user/.arduino15/packages/ATTinyCore/hardware/avr/1.5.2/cores/tinymodern/core_timers.h:692
}
timer0_com_t;

__attribute__((always_inline)) static inline void Timer0_SetCompareOutputModeA( timer0_com_t com )
{
  TCCR0A = (TCCR0A & ~MASK2(COM0A1,COM0A0)) | (com << COM0A0);
     3ac:	8b b3       	in	r24, 0x1b	; 27
     3ae:	8f 73       	andi	r24, 0x3F	; 63
Timer0_SetCompareOutputModeB():
/home/user/.arduino15/packages/ATTinyCore/hardware/avr/1.5.2/cores/tinymodern/core_timers.h:697
}

__attribute__((always_inline)) static inline void Timer0_SetCompareOutputModeB( timer0_com_t com )
{
  TCCR0A = (TCCR0A & ~MASK2(COM0B1,COM0B0)) | (com << COM0B0);
     3b0:	8b bb       	out	0x1b, r24	; 27
digitalWrite():
/home/user/.arduino15/packages/ATTinyCore/hardware/avr/1.5.2/cores/tinymodern/wiring_digital.c:195

  // If the pin that support PWM output, we need to turn it off
  // before doing a digital write.
  turnOffPWM( pin );

  out = portOutputRegister(port);
     3b2:	b0 e0       	ldi	r27, 0x00	; 0
     3b4:	fd 01       	movw	r30, r26
     3b6:	e4 58       	subi	r30, 0x84	; 132
     3b8:	ff 4f       	sbci	r31, 0xFF	; 255
     3ba:	c4 91       	lpm	r28, Z
     3bc:	d0 e0       	ldi	r29, 0x00	; 0
/home/user/.arduino15/packages/ATTinyCore/hardware/avr/1.5.2/cores/tinymodern/wiring_digital.c:196
  pue = portPullupRegister(port);
     3be:	a8 58       	subi	r26, 0x88	; 136
     3c0:	bf 4f       	sbci	r27, 0xFF	; 255
     3c2:	fd 01       	movw	r30, r26
     3c4:	a4 91       	lpm	r26, Z
     3c6:	b0 e0       	ldi	r27, 0x00	; 0
     3c8:	92 2f       	mov	r25, r18
     3ca:	90 95       	com	r25
/home/user/.arduino15/packages/ATTinyCore/hardware/avr/1.5.2/cores/tinymodern/wiring_digital.c:198

  if (val == LOW) {
     3cc:	61 11       	cpse	r22, r1
     3ce:	1f c0       	rjmp	.+62     	; 0x40e <__LOCK_REGION_LENGTH__+0xe>
/home/user/.arduino15/packages/ATTinyCore/hardware/avr/1.5.2/cores/tinymodern/wiring_digital.c:199
    uint8_t oldSREG = SREG;
     3d0:	2f b7       	in	r18, 0x3f	; 63
/home/user/.arduino15/packages/ATTinyCore/hardware/avr/1.5.2/cores/tinymodern/wiring_digital.c:200
    cli();
     3d2:	f8 94       	cli
/home/user/.arduino15/packages/ATTinyCore/hardware/avr/1.5.2/cores/tinymodern/wiring_digital.c:201
    *out &= ~bit;
     3d4:	88 81       	ld	r24, Y
     3d6:	89 23       	and	r24, r25
     3d8:	88 83       	st	Y, r24
/home/user/.arduino15/packages/ATTinyCore/hardware/avr/1.5.2/cores/tinymodern/wiring_digital.c:202
    *pue &= ~bit; //Turn off the pullups
     3da:	8c 91       	ld	r24, X
     3dc:	89 23       	and	r24, r25
     3de:	8c 93       	st	X, r24
/home/user/.arduino15/packages/ATTinyCore/hardware/avr/1.5.2/cores/tinymodern/wiring_digital.c:203
    SREG = oldSREG;
     3e0:	2f bf       	out	0x3f, r18	; 63
/home/user/.arduino15/packages/ATTinyCore/hardware/avr/1.5.2/cores/tinymodern/wiring_digital.c:211
    cli();
    *out |= bit;
    *pue &= ~bit;
    SREG = oldSREG;
  }
}
     3e2:	df 91       	pop	r29
     3e4:	cf 91       	pop	r28
     3e6:	08 95       	ret
turnOffPWM():
/home/user/.arduino15/packages/ATTinyCore/hardware/avr/1.5.2/cores/tinymodern/wiring_digital.c:131
    }
    else
  #endif

  #if CORE_PWM_COUNT >= 2
    if ( pin == CORE_PWM1_PIN )
     3e8:	83 30       	cpi	r24, 0x03	; 3
     3ea:	19 f4       	brne	.+6      	; 0x3f2 <digitalWrite+0x78>
Timer0_SetCompareOutputModeB():
/home/user/.arduino15/packages/ATTinyCore/hardware/avr/1.5.2/cores/tinymodern/core_timers.h:697
     3ec:	8b b3       	in	r24, 0x1b	; 27
     3ee:	8f 7c       	andi	r24, 0xCF	; 207
     3f0:	df cf       	rjmp	.-66     	; 0x3b0 <digitalWrite+0x36>
turnOffPWM():
/home/user/.arduino15/packages/ATTinyCore/hardware/avr/1.5.2/cores/tinymodern/wiring_digital.c:139
    }
    else
  #endif

  #if CORE_PWM_COUNT >= 3
    if ( pin == CORE_PWM2_PIN )
     3f2:	8e 30       	cpi	r24, 0x0E	; 14
     3f4:	31 f4       	brne	.+12     	; 0x402 <__LOCK_REGION_LENGTH__+0x2>
Timer1_SetCompareOutputModeA():
/home/user/.arduino15/packages/ATTinyCore/hardware/avr/1.5.2/cores/tinymodern/core_timers.h:852
}
timer1_com_t;

__attribute__((always_inline)) static inline void Timer1_SetCompareOutputModeA( timer1_com_t com )
{
  TCCR1A = (TCCR1A & ~MASK2(COM1A1,COM1A0)) | (com << COM1A0);
     3f6:	80 91 72 00 	lds	r24, 0x0072	; 0x800072 <__DATA_REGION_ORIGIN__+0x12>
     3fa:	8f 73       	andi	r24, 0x3F	; 63
Timer1_SetCompareOutputModeB():
/home/user/.arduino15/packages/ATTinyCore/hardware/avr/1.5.2/cores/tinymodern/core_timers.h:857
}

__attribute__((always_inline)) static inline void Timer1_SetCompareOutputModeB( timer1_com_t com )
{
  TCCR1A = (TCCR1A & ~MASK2(COM1B1,COM1B0)) | (com << COM1B0);
     3fc:	80 93 72 00 	sts	0x0072, r24	; 0x800072 <__DATA_REGION_ORIGIN__+0x12>
     400:	d8 cf       	rjmp	.-80     	; 0x3b2 <digitalWrite+0x38>
turnOffPWM():
/home/user/.arduino15/packages/ATTinyCore/hardware/avr/1.5.2/cores/tinymodern/wiring_digital.c:147
    }
    else
  #endif

  #if CORE_PWM_COUNT >= 4
    if ( pin == CORE_PWM3_PIN )
     402:	82 30       	cpi	r24, 0x02	; 2
     404:	b1 f6       	brne	.-84     	; 0x3b2 <digitalWrite+0x38>
Timer1_SetCompareOutputModeB():
/home/user/.arduino15/packages/ATTinyCore/hardware/avr/1.5.2/cores/tinymodern/core_timers.h:857
     406:	80 91 72 00 	lds	r24, 0x0072	; 0x800072 <__DATA_REGION_ORIGIN__+0x12>
     40a:	8f 7c       	andi	r24, 0xCF	; 207
     40c:	f7 cf       	rjmp	.-18     	; 0x3fc <digitalWrite+0x82>
digitalWrite():
/home/user/.arduino15/packages/ATTinyCore/hardware/avr/1.5.2/cores/tinymodern/wiring_digital.c:205
    cli();
    *out &= ~bit;
    *pue &= ~bit; //Turn off the pullups
    SREG = oldSREG;
  } else {
    uint8_t oldSREG = SREG;
     40e:	3f b7       	in	r19, 0x3f	; 63
/home/user/.arduino15/packages/ATTinyCore/hardware/avr/1.5.2/cores/tinymodern/wiring_digital.c:206
    cli();
     410:	f8 94       	cli
/home/user/.arduino15/packages/ATTinyCore/hardware/avr/1.5.2/cores/tinymodern/wiring_digital.c:207
    *out |= bit;
     412:	e8 81       	ld	r30, Y
     414:	e2 2b       	or	r30, r18
     416:	e8 83       	st	Y, r30
/home/user/.arduino15/packages/ATTinyCore/hardware/avr/1.5.2/cores/tinymodern/wiring_digital.c:208
    *pue &= ~bit;
     418:	8c 91       	ld	r24, X
     41a:	89 23       	and	r24, r25
     41c:	8c 93       	st	X, r24
/home/user/.arduino15/packages/ATTinyCore/hardware/avr/1.5.2/cores/tinymodern/wiring_digital.c:209
    SREG = oldSREG;
     41e:	3f bf       	out	0x3f, r19	; 63
     420:	e0 cf       	rjmp	.-64     	; 0x3e2 <digitalWrite+0x68>

00000422 <pinMode>:
pinMode():
/home/user/.arduino15/packages/ATTinyCore/hardware/avr/1.5.2/cores/tinymodern/wiring_digital.c:37
#include "core_timers.h"
#include "PwmTimer.h"

#if defined(__AVR_ATtinyX41__ ) || defined(__AVR_ATtiny1634__) || defined(__AVR_ATtiny828__)
void pinMode(uint8_t pin, uint8_t mode)
{
     422:	cf 93       	push	r28
     424:	df 93       	push	r29
/home/user/.arduino15/packages/ATTinyCore/hardware/avr/1.5.2/cores/tinymodern/wiring_digital.c:39
  #ifndef __AVR_ATtiny828__
  if (pin&64) {pin=analogInputToDigitalPin((pin & 63));}
     426:	86 ff       	sbrs	r24, 6
     428:	07 c0       	rjmp	.+14     	; 0x438 <pinMode+0x16>
     42a:	8f 73       	andi	r24, 0x3F	; 63
     42c:	a5 e0       	ldi	r26, 0x05	; 5
     42e:	86 30       	cpi	r24, 0x06	; 6
     430:	08 f0       	brcs	.+2      	; 0x434 <pinMode+0x12>
     432:	a6 e1       	ldi	r26, 0x16	; 22
     434:	a8 1b       	sub	r26, r24
     436:	8a 2f       	mov	r24, r26
/home/user/.arduino15/packages/ATTinyCore/hardware/avr/1.5.2/cores/tinymodern/wiring_digital.c:41
  #endif
  uint8_t bit = digitalPinToBitMask(pin);
     438:	a8 2f       	mov	r26, r24
     43a:	b0 e0       	ldi	r27, 0x00	; 0
     43c:	fd 01       	movw	r30, r26
     43e:	ee 56       	subi	r30, 0x6E	; 110
     440:	ff 4f       	sbci	r31, 0xFF	; 255
     442:	24 91       	lpm	r18, Z
/home/user/.arduino15/packages/ATTinyCore/hardware/avr/1.5.2/cores/tinymodern/wiring_digital.c:42
  uint8_t port = digitalPinToPort(pin);
     444:	a0 58       	subi	r26, 0x80	; 128
     446:	bf 4f       	sbci	r27, 0xFF	; 255
     448:	fd 01       	movw	r30, r26
     44a:	a4 91       	lpm	r26, Z
/home/user/.arduino15/packages/ATTinyCore/hardware/avr/1.5.2/cores/tinymodern/wiring_digital.c:45
  volatile uint8_t *reg, *out, *pue;

  if (port == NOT_A_PIN) return;
     44c:	aa 23       	and	r26, r26
     44e:	19 f1       	breq	.+70     	; 0x496 <pinMode+0x74>
/home/user/.arduino15/packages/ATTinyCore/hardware/avr/1.5.2/cores/tinymodern/wiring_digital.c:48

  // JWS: can I let the optimizer do this?
  reg = portModeRegister(port);
     450:	b0 e0       	ldi	r27, 0x00	; 0
     452:	fd 01       	movw	r30, r26
     454:	ec 58       	subi	r30, 0x8C	; 140
     456:	ff 4f       	sbci	r31, 0xFF	; 255
     458:	e4 91       	lpm	r30, Z
     45a:	ce 2f       	mov	r28, r30
     45c:	d0 e0       	ldi	r29, 0x00	; 0
/home/user/.arduino15/packages/ATTinyCore/hardware/avr/1.5.2/cores/tinymodern/wiring_digital.c:49
  out = portOutputRegister(port);
     45e:	fd 01       	movw	r30, r26
     460:	e4 58       	subi	r30, 0x84	; 132
     462:	ff 4f       	sbci	r31, 0xFF	; 255
     464:	e4 91       	lpm	r30, Z
     466:	8e 2f       	mov	r24, r30
     468:	90 e0       	ldi	r25, 0x00	; 0
/home/user/.arduino15/packages/ATTinyCore/hardware/avr/1.5.2/cores/tinymodern/wiring_digital.c:50
  pue = portPullupRegister(port);
     46a:	a8 58       	subi	r26, 0x88	; 136
     46c:	bf 4f       	sbci	r27, 0xFF	; 255
     46e:	fd 01       	movw	r30, r26
     470:	a4 91       	lpm	r26, Z
     472:	b0 e0       	ldi	r27, 0x00	; 0
     474:	32 2f       	mov	r19, r18
     476:	30 95       	com	r19
/home/user/.arduino15/packages/ATTinyCore/hardware/avr/1.5.2/cores/tinymodern/wiring_digital.c:52

  if (mode == INPUT) {
     478:	61 11       	cpse	r22, r1
     47a:	10 c0       	rjmp	.+32     	; 0x49c <pinMode+0x7a>
/home/user/.arduino15/packages/ATTinyCore/hardware/avr/1.5.2/cores/tinymodern/wiring_digital.c:53
    uint8_t oldSREG = SREG;
     47c:	4f b7       	in	r20, 0x3f	; 63
/home/user/.arduino15/packages/ATTinyCore/hardware/avr/1.5.2/cores/tinymodern/wiring_digital.c:54
                cli();
     47e:	f8 94       	cli
/home/user/.arduino15/packages/ATTinyCore/hardware/avr/1.5.2/cores/tinymodern/wiring_digital.c:55
    *reg &= ~bit;
     480:	28 81       	ld	r18, Y
     482:	23 23       	and	r18, r19
     484:	28 83       	st	Y, r18
/home/user/.arduino15/packages/ATTinyCore/hardware/avr/1.5.2/cores/tinymodern/wiring_digital.c:56
    *out &= ~bit;
     486:	fc 01       	movw	r30, r24
     488:	20 81       	ld	r18, Z
     48a:	23 23       	and	r18, r19
     48c:	20 83       	st	Z, r18
/home/user/.arduino15/packages/ATTinyCore/hardware/avr/1.5.2/cores/tinymodern/wiring_digital.c:57
    *pue &= ~bit;
     48e:	8c 91       	ld	r24, X
     490:	38 23       	and	r19, r24
     492:	3c 93       	st	X, r19
/home/user/.arduino15/packages/ATTinyCore/hardware/avr/1.5.2/cores/tinymodern/wiring_digital.c:58
    SREG = oldSREG;
     494:	4f bf       	out	0x3f, r20	; 63
/home/user/.arduino15/packages/ATTinyCore/hardware/avr/1.5.2/cores/tinymodern/wiring_digital.c:73
                cli();
    *pue &= ~bit;
    *reg |= bit;
    SREG = oldSREG;
  }
}
     496:	df 91       	pop	r29
     498:	cf 91       	pop	r28
     49a:	08 95       	ret
/home/user/.arduino15/packages/ATTinyCore/hardware/avr/1.5.2/cores/tinymodern/wiring_digital.c:59
                cli();
    *reg &= ~bit;
    *out &= ~bit;
    *pue &= ~bit;
    SREG = oldSREG;
  } else if (mode == INPUT_PULLUP) {
     49c:	62 30       	cpi	r22, 0x02	; 2
     49e:	71 f4       	brne	.+28     	; 0x4bc <pinMode+0x9a>
/home/user/.arduino15/packages/ATTinyCore/hardware/avr/1.5.2/cores/tinymodern/wiring_digital.c:60
    uint8_t oldSREG = SREG;
     4a0:	5f b7       	in	r21, 0x3f	; 63
/home/user/.arduino15/packages/ATTinyCore/hardware/avr/1.5.2/cores/tinymodern/wiring_digital.c:61
                cli();
     4a2:	f8 94       	cli
/home/user/.arduino15/packages/ATTinyCore/hardware/avr/1.5.2/cores/tinymodern/wiring_digital.c:62
    *reg &= ~bit;
     4a4:	48 81       	ld	r20, Y
     4a6:	34 23       	and	r19, r20
     4a8:	38 83       	st	Y, r19
/home/user/.arduino15/packages/ATTinyCore/hardware/avr/1.5.2/cores/tinymodern/wiring_digital.c:63
    *out |= bit;
     4aa:	fc 01       	movw	r30, r24
     4ac:	30 81       	ld	r19, Z
     4ae:	32 2b       	or	r19, r18
     4b0:	30 83       	st	Z, r19
/home/user/.arduino15/packages/ATTinyCore/hardware/avr/1.5.2/cores/tinymodern/wiring_digital.c:64
    *pue |= bit;
     4b2:	ec 91       	ld	r30, X
     4b4:	2e 2b       	or	r18, r30
     4b6:	2c 93       	st	X, r18
/home/user/.arduino15/packages/ATTinyCore/hardware/avr/1.5.2/cores/tinymodern/wiring_digital.c:65
    SREG = oldSREG;
     4b8:	5f bf       	out	0x3f, r21	; 63
     4ba:	ed cf       	rjmp	.-38     	; 0x496 <pinMode+0x74>
/home/user/.arduino15/packages/ATTinyCore/hardware/avr/1.5.2/cores/tinymodern/wiring_digital.c:67
  } else {
    uint8_t oldSREG = SREG;
     4bc:	9f b7       	in	r25, 0x3f	; 63
/home/user/.arduino15/packages/ATTinyCore/hardware/avr/1.5.2/cores/tinymodern/wiring_digital.c:68
                cli();
     4be:	f8 94       	cli
/home/user/.arduino15/packages/ATTinyCore/hardware/avr/1.5.2/cores/tinymodern/wiring_digital.c:69
    *pue &= ~bit;
     4c0:	8c 91       	ld	r24, X
     4c2:	38 23       	and	r19, r24
     4c4:	3c 93       	st	X, r19
/home/user/.arduino15/packages/ATTinyCore/hardware/avr/1.5.2/cores/tinymodern/wiring_digital.c:70
    *reg |= bit;
     4c6:	e8 81       	ld	r30, Y
     4c8:	2e 2b       	or	r18, r30
     4ca:	28 83       	st	Y, r18
/home/user/.arduino15/packages/ATTinyCore/hardware/avr/1.5.2/cores/tinymodern/wiring_digital.c:71
    SREG = oldSREG;
     4cc:	9f bf       	out	0x3f, r25	; 63
     4ce:	e3 cf       	rjmp	.-58     	; 0x496 <pinMode+0x74>

000004d0 <micros>:
micros():
/home/user/.arduino15/packages/ATTinyCore/hardware/avr/1.5.2/cores/tinymodern/wiring.c:134
  return m;
}
unsigned long micros()
{
  unsigned long m;
  uint8_t oldSREG = SREG, t;
     4d0:	3f b7       	in	r19, 0x3f	; 63
/home/user/.arduino15/packages/ATTinyCore/hardware/avr/1.5.2/cores/tinymodern/wiring.c:136

  cli();
     4d2:	f8 94       	cli
/home/user/.arduino15/packages/ATTinyCore/hardware/avr/1.5.2/cores/tinymodern/wiring.c:137
  m = millis_timer_overflow_count;
     4d4:	80 91 69 01 	lds	r24, 0x0169	; 0x800169 <millis_timer_overflow_count>
     4d8:	90 91 6a 01 	lds	r25, 0x016A	; 0x80016a <millis_timer_overflow_count+0x1>
     4dc:	a0 91 6b 01 	lds	r26, 0x016B	; 0x80016b <millis_timer_overflow_count+0x2>
     4e0:	b0 91 6c 01 	lds	r27, 0x016C	; 0x80016c <millis_timer_overflow_count+0x3>
/home/user/.arduino15/packages/ATTinyCore/hardware/avr/1.5.2/cores/tinymodern/wiring.c:139
#if defined(TCNT0) && (TIMER_TO_USE_FOR_MILLIS == 0) && !defined(TCW0)
  t = TCNT0;
     4e4:	29 b3       	in	r18, 0x19	; 25
/home/user/.arduino15/packages/ATTinyCore/hardware/avr/1.5.2/cores/tinymodern/wiring.c:154

#if defined(TIFR0) && (TIMER_TO_USE_FOR_MILLIS == 0)
  if ((TIFR0 & _BV(TOV0)) && (t < 255))
    m++;
#elif defined(TIFR) && (TIMER_TO_USE_FOR_MILLIS == 0)
  if ((TIFR & _BV(TOV0)) && (t < 255))
     4e6:	09 b6       	in	r0, 0x39	; 57
     4e8:	01 fe       	sbrs	r0, 1
     4ea:	05 c0       	rjmp	.+10     	; 0x4f6 <micros+0x26>
     4ec:	2f 3f       	cpi	r18, 0xFF	; 255
     4ee:	19 f0       	breq	.+6      	; 0x4f6 <micros+0x26>
/home/user/.arduino15/packages/ATTinyCore/hardware/avr/1.5.2/cores/tinymodern/wiring.c:155
    m++;
     4f0:	01 96       	adiw	r24, 0x01	; 1
     4f2:	a1 1d       	adc	r26, r1
     4f4:	b1 1d       	adc	r27, r1
/home/user/.arduino15/packages/ATTinyCore/hardware/avr/1.5.2/cores/tinymodern/wiring.c:164
#elif defined(TIFR) && (TIMER_TO_USE_FOR_MILLIS == 1)
  if ((TIFR & _BV(TOV1)) && (t < 255))
    m++;
#endif

  SREG = oldSREG;
     4f6:	3f bf       	out	0x3f, r19	; 63
/home/user/.arduino15/packages/ATTinyCore/hardware/avr/1.5.2/cores/tinymodern/wiring.c:171

#if F_CPU < 1000000L
  return ((m << 8) + t) * MillisTimer_Prescale_Value * (1000000L/F_CPU);
#else
#if (MillisTimer_Prescale_Value % clockCyclesPerMicrosecond() == 0 ) // Can we just do it the naive way? If so great!
  return ((m << 8) + t) * (MillisTimer_Prescale_Value / clockCyclesPerMicrosecond());
     4f8:	ba 2f       	mov	r27, r26
     4fa:	a9 2f       	mov	r26, r25
     4fc:	98 2f       	mov	r25, r24
     4fe:	88 27       	eor	r24, r24
     500:	bc 01       	movw	r22, r24
     502:	cd 01       	movw	r24, r26
     504:	62 0f       	add	r22, r18
     506:	71 1d       	adc	r23, r1
     508:	81 1d       	adc	r24, r1
     50a:	91 1d       	adc	r25, r1
     50c:	43 e0       	ldi	r20, 0x03	; 3
     50e:	66 0f       	add	r22, r22
     510:	77 1f       	adc	r23, r23
     512:	88 1f       	adc	r24, r24
     514:	99 1f       	adc	r25, r25
     516:	4a 95       	dec	r20
     518:	d1 f7       	brne	.-12     	; 0x50e <__stack+0xf>
/home/user/.arduino15/packages/ATTinyCore/hardware/avr/1.5.2/cores/tinymodern/wiring.c:217
  //the high part gets divided by cCPuS then multiplied by the prescaler. Then take the low 8 bits plus the high part modulo-cCPuS to correct for the division, then multiply that by the prescaler value first before dividing by cCPuS, and finally add the two together.
  //return ((m << 8 )/clockCyclesPerMicrosecond()* MillisTimer_Prescale_Value) + ((t+(((m<<8)%clockCyclesPerMicrosecond())) * MillisTimer_Prescale_Value / clockCyclesPerMicrosecond()));
  return ((m << 8 )/clockCyclesPerMicrosecond()* MillisTimer_Prescale_Value) + (t * MillisTimer_Prescale_Value / clockCyclesPerMicrosecond());
#endif
#endif
}
     51a:	08 95       	ret

0000051c <delay>:
delay():
/home/user/.arduino15/packages/ATTinyCore/hardware/avr/1.5.2/cores/tinymodern/wiring.c:225
  // Empty
}
void yield(void) __attribute__ ((weak, alias("__empty")));

void delay(unsigned long ms)
{
     51c:	cf 92       	push	r12
     51e:	df 92       	push	r13
     520:	ef 92       	push	r14
     522:	ff 92       	push	r15
     524:	cf 93       	push	r28
     526:	df 93       	push	r29
     528:	6b 01       	movw	r12, r22
     52a:	7c 01       	movw	r14, r24
/home/user/.arduino15/packages/ATTinyCore/hardware/avr/1.5.2/cores/tinymodern/wiring.c:227
  #if (F_CPU>=1000000L)
  uint16_t start = (uint16_t)micros();
     52c:	0e 94 68 02 	call	0x4d0	; 0x4d0 <micros>
     530:	eb 01       	movw	r28, r22
/home/user/.arduino15/packages/ATTinyCore/hardware/avr/1.5.2/cores/tinymodern/wiring.c:231

  while (ms > 0) {
    yield();
    while (((uint16_t)micros() - start) >= 1000 && ms) {
     532:	0e 94 68 02 	call	0x4d0	; 0x4d0 <micros>
     536:	6c 1b       	sub	r22, r28
     538:	7d 0b       	sbc	r23, r29
     53a:	68 3e       	cpi	r22, 0xE8	; 232
     53c:	73 40       	sbci	r23, 0x03	; 3
     53e:	a0 f0       	brcs	.+40     	; 0x568 <delay+0x4c>
     540:	c1 14       	cp	r12, r1
     542:	d1 04       	cpc	r13, r1
     544:	e1 04       	cpc	r14, r1
     546:	f1 04       	cpc	r15, r1
     548:	39 f4       	brne	.+14     	; 0x558 <delay+0x3c>
/home/user/.arduino15/packages/ATTinyCore/hardware/avr/1.5.2/cores/tinymodern/wiring.c:241
  #else
  uint32_t start = millis();
  while((millis() - start) < ms)  /* NOP */yield();
  return;
  #endif
}
     54a:	df 91       	pop	r29
     54c:	cf 91       	pop	r28
     54e:	ff 90       	pop	r15
     550:	ef 90       	pop	r14
     552:	df 90       	pop	r13
     554:	cf 90       	pop	r12
     556:	08 95       	ret
/home/user/.arduino15/packages/ATTinyCore/hardware/avr/1.5.2/cores/tinymodern/wiring.c:232
  uint16_t start = (uint16_t)micros();

  while (ms > 0) {
    yield();
    while (((uint16_t)micros() - start) >= 1000 && ms) {
      ms--;
     558:	81 e0       	ldi	r24, 0x01	; 1
     55a:	c8 1a       	sub	r12, r24
     55c:	d1 08       	sbc	r13, r1
     55e:	e1 08       	sbc	r14, r1
     560:	f1 08       	sbc	r15, r1
/home/user/.arduino15/packages/ATTinyCore/hardware/avr/1.5.2/cores/tinymodern/wiring.c:233
      start += 1000;
     562:	c8 51       	subi	r28, 0x18	; 24
     564:	dc 4f       	sbci	r29, 0xFC	; 252
     566:	e5 cf       	rjmp	.-54     	; 0x532 <delay+0x16>
/home/user/.arduino15/packages/ATTinyCore/hardware/avr/1.5.2/cores/tinymodern/wiring.c:229
void delay(unsigned long ms)
{
  #if (F_CPU>=1000000L)
  uint16_t start = (uint16_t)micros();

  while (ms > 0) {
     568:	c1 14       	cp	r12, r1
     56a:	d1 04       	cpc	r13, r1
     56c:	e1 04       	cpc	r14, r1
     56e:	f1 04       	cpc	r15, r1
     570:	01 f7       	brne	.-64     	; 0x532 <delay+0x16>
     572:	eb cf       	rjmp	.-42     	; 0x54a <delay+0x2e>

00000574 <USI_TWI_Master_Transfer>:
USI_TWI_Master_Transfer():
/home/user/.arduino15/packages/ATTinyCore/hardware/avr/1.5.2/libraries/Wire/src/USI_TWI_Master/USI_TWI_Master.c:225
 Data to be sent has to be placed into the USIDR prior to calling
 this function. Data read, will be return'ed from the function.
---------------------------------------------------------------*/
unsigned char USI_TWI_Master_Transfer(unsigned char temp)
{
  USISR = temp;                                          // Set USISR according to temp.
     574:	8b bd       	out	0x2b, r24	; 43
_delay_loop_1():
/home/user/.arduino15/packages/arduino/tools/avr-gcc/7.3.0-atmel3.6.1-arduino7/avr/include/util/delay_basic.h:83
    can be achieved.
*/
void
_delay_loop_1(uint8_t __count)
{
	__asm__ volatile (
     576:	35 e0       	ldi	r19, 0x05	; 5
USI_TWI_Master_Transfer():
/home/user/.arduino15/packages/ATTinyCore/hardware/avr/1.5.2/libraries/Wire/src/USI_TWI_Master/USI_TWI_Master.c:233
         (1 << USIWM1) | (0 << USIWM0) |                 // Set USI in Two-wire mode.
         (1 << USICS1) | (0 << USICS0) | (1 << USICLK) | // Software clock strobe as source.
         (1 << USITC);                                   // Toggle Clock Port.
  do {
    if (USI_TWI_MASTER_SPEED) DELAY_T2TWI_FM; else DELAY_T2TWI;
    USICR = temp; // Generate positive SCL edge.
     578:	8b e2       	ldi	r24, 0x2B	; 43
_delay_loop_1():
/home/user/.arduino15/packages/arduino/tools/avr-gcc/7.3.0-atmel3.6.1-arduino7/avr/include/util/delay_basic.h:83
     57a:	24 e0       	ldi	r18, 0x04	; 4
     57c:	93 2f       	mov	r25, r19
     57e:	9a 95       	dec	r25
     580:	f1 f7       	brne	.-4      	; 0x57e <USI_TWI_Master_Transfer+0xa>
USI_TWI_Master_Transfer():
/home/user/.arduino15/packages/ATTinyCore/hardware/avr/1.5.2/libraries/Wire/src/USI_TWI_Master/USI_TWI_Master.c:233
     582:	8a bd       	out	0x2a, r24	; 42
/home/user/.arduino15/packages/ATTinyCore/hardware/avr/1.5.2/libraries/Wire/src/USI_TWI_Master/USI_TWI_Master.c:234
    while (!(PIN_USI_CL & (1 << PIN_USI_SCL)))
     584:	39 9b       	sbis	0x07, 1	; 7
     586:	fe cf       	rjmp	.-4      	; 0x584 <USI_TWI_Master_Transfer+0x10>
_delay_loop_1():
/home/user/.arduino15/packages/arduino/tools/avr-gcc/7.3.0-atmel3.6.1-arduino7/avr/include/util/delay_basic.h:83
     588:	92 2f       	mov	r25, r18
     58a:	9a 95       	dec	r25
     58c:	f1 f7       	brne	.-4      	; 0x58a <USI_TWI_Master_Transfer+0x16>
USI_TWI_Master_Transfer():
/home/user/.arduino15/packages/ATTinyCore/hardware/avr/1.5.2/libraries/Wire/src/USI_TWI_Master/USI_TWI_Master.c:237
      ; // Wait for SCL to go high.
    if (USI_TWI_MASTER_SPEED) DELAY_T4TWI_FM; else DELAY_T4TWI;
    USICR = temp;                   // Generate negative SCL edge.
     58e:	8a bd       	out	0x2a, r24	; 42
/home/user/.arduino15/packages/ATTinyCore/hardware/avr/1.5.2/libraries/Wire/src/USI_TWI_Master/USI_TWI_Master.c:238
  } while (!(USISR & (1 << USIOIF))); // Check for transfer complete.
     590:	0b b4       	in	r0, 0x2b	; 43
     592:	06 fe       	sbrs	r0, 6
     594:	f3 cf       	rjmp	.-26     	; 0x57c <USI_TWI_Master_Transfer+0x8>
_delay_loop_1():
/home/user/.arduino15/packages/arduino/tools/avr-gcc/7.3.0-atmel3.6.1-arduino7/avr/include/util/delay_basic.h:83
     596:	85 e0       	ldi	r24, 0x05	; 5
     598:	8a 95       	dec	r24
     59a:	f1 f7       	brne	.-4      	; 0x598 <USI_TWI_Master_Transfer+0x24>
USI_TWI_Master_Transfer():
/home/user/.arduino15/packages/ATTinyCore/hardware/avr/1.5.2/libraries/Wire/src/USI_TWI_Master/USI_TWI_Master.c:241

  if (USI_TWI_MASTER_SPEED) DELAY_T2TWI_FM; else DELAY_T2TWI;
  temp  = USIDR;                 // Read out data.
     59c:	8c b5       	in	r24, 0x2c	; 44
/home/user/.arduino15/packages/ATTinyCore/hardware/avr/1.5.2/libraries/Wire/src/USI_TWI_Master/USI_TWI_Master.c:242
  USIDR = 0xFF;                  // Release SDA.
     59e:	9f ef       	ldi	r25, 0xFF	; 255
     5a0:	9c bd       	out	0x2c, r25	; 44
/home/user/.arduino15/packages/ATTinyCore/hardware/avr/1.5.2/libraries/Wire/src/USI_TWI_Master/USI_TWI_Master.c:243
  DDR_USI |= (1 << PIN_USI_SDA); // Enable SDA as output.
     5a2:	61 9a       	sbi	0x0c, 1	; 12
/home/user/.arduino15/packages/ATTinyCore/hardware/avr/1.5.2/libraries/Wire/src/USI_TWI_Master/USI_TWI_Master.c:246

  return temp; // Return the data from the USIDR
}
     5a4:	08 95       	ret

000005a6 <USI_TWI_Start_Transceiver_With_Data_Stop>:
USI_TWI_Start_Transceiver_With_Data_Stop():
/home/user/.arduino15/packages/ATTinyCore/hardware/avr/1.5.2/libraries/Wire/src/USI_TWI_Master/USI_TWI_Master.c:108
 parameter that defines if a Stop Condition should be send at the end
 of the transmission.
---------------------------------------------------------------*/

unsigned char USI_TWI_Start_Transceiver_With_Data_Stop(unsigned char *msg, unsigned char msgSize, unsigned char stop)
{
     5a6:	ff 92       	push	r15
     5a8:	0f 93       	push	r16
     5aa:	1f 93       	push	r17
     5ac:	cf 93       	push	r28
     5ae:	df 93       	push	r29
     5b0:	06 2f       	mov	r16, r22
     5b2:	14 2f       	mov	r17, r20
/home/user/.arduino15/packages/ATTinyCore/hardware/avr/1.5.2/libraries/Wire/src/USI_TWI_Master/USI_TWI_Master.c:115
  // Prepare register value to: Clear flags set USI to shift 8 bits i.e. count 16 clock edges.

  unsigned char tempUSISR_1bit = (1 << USISIF) | (1 << USIOIF) | (1 << USIPF) | (1 << USIDC) | (0xE << USICNT0);
  // Prepare register value to: Clear flags, and set USI to shift 1 bit i.e. count 2 clock edges.

  USI_TWI_state.errorState  = 0;
     5b4:	21 e0       	ldi	r18, 0x01	; 1
     5b6:	20 93 72 01 	sts	0x0172, r18	; 0x800172 <USI_TWI_state>
/home/user/.arduino15/packages/ATTinyCore/hardware/avr/1.5.2/libraries/Wire/src/USI_TWI_Master/USI_TWI_Master.c:146
    USI_TWI_state.errorState = USI_TWI_UE_DATA_COL;
    return (FALSE);
  }
#endif

  if (!(*msg & (1 << TWI_READ_BIT))) // The LSB in the address byte determines if is a masterRead or masterWrite operation.
     5ba:	fc 01       	movw	r30, r24
     5bc:	20 81       	ld	r18, Z
     5be:	20 fd       	sbrc	r18, 0
     5c0:	03 c0       	rjmp	.+6      	; 0x5c8 <USI_TWI_Start_Transceiver_With_Data_Stop+0x22>
/home/user/.arduino15/packages/ATTinyCore/hardware/avr/1.5.2/libraries/Wire/src/USI_TWI_Master/USI_TWI_Master.c:148
  {
    USI_TWI_state.masterWriteDataMode = TRUE;
     5c2:	23 e0       	ldi	r18, 0x03	; 3
     5c4:	20 93 72 01 	sts	0x0172, r18	; 0x800172 <USI_TWI_state>
/home/user/.arduino15/packages/ATTinyCore/hardware/avr/1.5.2/libraries/Wire/src/USI_TWI_Master/USI_TWI_Master.c:152
  }

  /* Release SCL to ensure that (repeated) Start can be performed */
  PORT_USI_CL |= (1 << PIN_USI_SCL); // Release SCL.
     5c8:	49 9a       	sbi	0x09, 1	; 9
/home/user/.arduino15/packages/ATTinyCore/hardware/avr/1.5.2/libraries/Wire/src/USI_TWI_Master/USI_TWI_Master.c:153
  while (!(PIN_USI_CL & (1 << PIN_USI_SCL)))
     5ca:	39 9b       	sbis	0x07, 1	; 7
     5cc:	fe cf       	rjmp	.-4      	; 0x5ca <USI_TWI_Start_Transceiver_With_Data_Stop+0x24>
_delay_loop_1():
/home/user/.arduino15/packages/arduino/tools/avr-gcc/7.3.0-atmel3.6.1-arduino7/avr/include/util/delay_basic.h:83
     5ce:	25 e0       	ldi	r18, 0x05	; 5
     5d0:	2a 95       	dec	r18
     5d2:	f1 f7       	brne	.-4      	; 0x5d0 <USI_TWI_Start_Transceiver_With_Data_Stop+0x2a>
USI_TWI_Start_Transceiver_With_Data_Stop():
/home/user/.arduino15/packages/ATTinyCore/hardware/avr/1.5.2/libraries/Wire/src/USI_TWI_Master/USI_TWI_Master.c:159
    ; // Verify that SCL becomes high.
  if (USI_TWI_MASTER_SPEED) DELAY_T4TWI_FM; // Delay for T4TWI if TWI_FAST_MODE
  else DELAY_T2TWI;    // Delay for T2TWI if TWI_STANDARD_MODE

  /* Generate Start Condition */
  PORT_USI &= ~(1 << PIN_USI_SDA); // Force SDA LOW.
     5d4:	69 98       	cbi	0x0d, 1	; 13
_delay_loop_1():
/home/user/.arduino15/packages/arduino/tools/avr-gcc/7.3.0-atmel3.6.1-arduino7/avr/include/util/delay_basic.h:83
     5d6:	24 e0       	ldi	r18, 0x04	; 4
     5d8:	2a 95       	dec	r18
     5da:	f1 f7       	brne	.-4      	; 0x5d8 <USI_TWI_Start_Transceiver_With_Data_Stop+0x32>
USI_TWI_Start_Transceiver_With_Data_Stop():
/home/user/.arduino15/packages/ATTinyCore/hardware/avr/1.5.2/libraries/Wire/src/USI_TWI_Master/USI_TWI_Master.c:163

  if (USI_TWI_MASTER_SPEED) DELAY_T4TWI_FM; else DELAY_T4TWI; // UGGGGLLLYYYYY - but if you never call clock() which is the only thing that could change USI_TWI_MASTER_SPEED, should be optimized out

  PORT_USI_CL &= ~(1 << PIN_USI_SCL); // Pull SCL LOW.
     5dc:	49 98       	cbi	0x09, 1	; 9
/home/user/.arduino15/packages/ATTinyCore/hardware/avr/1.5.2/libraries/Wire/src/USI_TWI_Master/USI_TWI_Master.c:164
  PORT_USI |= (1 << PIN_USI_SDA);  // Release SDA.
     5de:	69 9a       	sbi	0x0d, 1	; 13
/home/user/.arduino15/packages/ATTinyCore/hardware/avr/1.5.2/libraries/Wire/src/USI_TWI_Master/USI_TWI_Master.c:167

#ifdef SIGNAL_VERIFY
  if (!(USISR & (1 << USISIF))) {
     5e0:	0b b4       	in	r0, 0x2b	; 43
     5e2:	07 fc       	sbrc	r0, 7
     5e4:	0b c0       	rjmp	.+22     	; 0x5fc <USI_TWI_Start_Transceiver_With_Data_Stop+0x56>
/home/user/.arduino15/packages/ATTinyCore/hardware/avr/1.5.2/libraries/Wire/src/USI_TWI_Master/USI_TWI_Master.c:168
    USI_TWI_state.errorState = USI_TWI_MISSING_START_CON;
     5e6:	87 e0       	ldi	r24, 0x07	; 7
/home/user/.arduino15/packages/ATTinyCore/hardware/avr/1.5.2/libraries/Wire/src/USI_TWI_Master/USI_TWI_Master.c:186

      /* Clock and verify (N)ACK from slave */
      DDR_USI &= ~(1 << PIN_USI_SDA); // Enable SDA as input.
      if (USI_TWI_Master_Transfer(tempUSISR_1bit) & (1 << TWI_NACK_BIT)) {
        if (USI_TWI_state.addressMode)
          USI_TWI_state.errorState = USI_TWI_NO_ACK_ON_ADDRESS;
     5e8:	80 93 72 01 	sts	0x0172, r24	; 0x800172 <USI_TWI_state>
/home/user/.arduino15/packages/ATTinyCore/hardware/avr/1.5.2/libraries/Wire/src/USI_TWI_Master/USI_TWI_Master.c:189
        else
          USI_TWI_state.errorState = USI_TWI_NO_ACK_ON_DATA;
        return (FALSE);
     5ec:	10 e0       	ldi	r17, 0x00	; 0
/home/user/.arduino15/packages/ATTinyCore/hardware/avr/1.5.2/libraries/Wire/src/USI_TWI_Master/USI_TWI_Master.c:216
    USI_TWI_Master_Stop(); // Send a STOP condition on the TWI bus.
  }

  /* Transmission successfully completed*/
  return (TRUE);
}
     5ee:	81 2f       	mov	r24, r17
     5f0:	df 91       	pop	r29
     5f2:	cf 91       	pop	r28
     5f4:	1f 91       	pop	r17
     5f6:	0f 91       	pop	r16
     5f8:	ff 90       	pop	r15
     5fa:	08 95       	ret
     5fc:	ec 01       	movw	r28, r24
/home/user/.arduino15/packages/ATTinyCore/hardware/avr/1.5.2/libraries/Wire/src/USI_TWI_Master/USI_TWI_Master.c:202
      *(msg++) = USI_TWI_Master_Transfer(tempUSISR_8bit);

      /* Prepare to generate ACK (or NACK in case of End Of Transmission) */
      if (msgSize == 1) // If transmission of last byte was performed.
      {
        USIDR = 0xFF; // Load NACK to confirm End Of Transmission.
     5fe:	ff 24       	eor	r15, r15
     600:	fa 94       	dec	r15
/home/user/.arduino15/packages/ATTinyCore/hardware/avr/1.5.2/libraries/Wire/src/USI_TWI_Master/USI_TWI_Master.c:176
#endif

  /*Write address and Read/Write data */
  do {
    /* If masterWrite cycle (or initial address transmission)*/
    if (USI_TWI_state.addressMode || USI_TWI_state.masterWriteDataMode) {
     602:	80 91 72 01 	lds	r24, 0x0172	; 0x800172 <USI_TWI_state>
     606:	83 70       	andi	r24, 0x03	; 3
     608:	29 f1       	breq	.+74     	; 0x654 <USI_TWI_Start_Transceiver_With_Data_Stop+0xae>
/home/user/.arduino15/packages/ATTinyCore/hardware/avr/1.5.2/libraries/Wire/src/USI_TWI_Master/USI_TWI_Master.c:178
      /* Write a byte */
      PORT_USI_CL &= ~(1 << PIN_USI_SCL);         // Pull SCL LOW.
     60a:	49 98       	cbi	0x09, 1	; 9
/home/user/.arduino15/packages/ATTinyCore/hardware/avr/1.5.2/libraries/Wire/src/USI_TWI_Master/USI_TWI_Master.c:179
      USIDR = *(msg++);                        // Setup data.
     60c:	88 81       	ld	r24, Y
     60e:	8c bd       	out	0x2c, r24	; 44
/home/user/.arduino15/packages/ATTinyCore/hardware/avr/1.5.2/libraries/Wire/src/USI_TWI_Master/USI_TWI_Master.c:180
      USI_TWI_Master_Transfer(tempUSISR_8bit); // Send 8 bits on bus.
     610:	80 ef       	ldi	r24, 0xF0	; 240
     612:	0e 94 ba 02 	call	0x574	; 0x574 <USI_TWI_Master_Transfer>
/home/user/.arduino15/packages/ATTinyCore/hardware/avr/1.5.2/libraries/Wire/src/USI_TWI_Master/USI_TWI_Master.c:183

      /* Clock and verify (N)ACK from slave */
      DDR_USI &= ~(1 << PIN_USI_SDA); // Enable SDA as input.
     616:	61 98       	cbi	0x0c, 1	; 12
/home/user/.arduino15/packages/ATTinyCore/hardware/avr/1.5.2/libraries/Wire/src/USI_TWI_Master/USI_TWI_Master.c:184
      if (USI_TWI_Master_Transfer(tempUSISR_1bit) & (1 << TWI_NACK_BIT)) {
     618:	8e ef       	ldi	r24, 0xFE	; 254
     61a:	0e 94 ba 02 	call	0x574	; 0x574 <USI_TWI_Master_Transfer>
     61e:	80 ff       	sbrs	r24, 0
     620:	0c c0       	rjmp	.+24     	; 0x63a <USI_TWI_Start_Transceiver_With_Data_Stop+0x94>
/home/user/.arduino15/packages/ATTinyCore/hardware/avr/1.5.2/libraries/Wire/src/USI_TWI_Master/USI_TWI_Master.c:185
        if (USI_TWI_state.addressMode)
     622:	80 91 72 01 	lds	r24, 0x0172	; 0x800172 <USI_TWI_state>
     626:	18 2f       	mov	r17, r24
     628:	11 70       	andi	r17, 0x01	; 1
     62a:	80 ff       	sbrs	r24, 0
     62c:	02 c0       	rjmp	.+4      	; 0x632 <USI_TWI_Start_Transceiver_With_Data_Stop+0x8c>
/home/user/.arduino15/packages/ATTinyCore/hardware/avr/1.5.2/libraries/Wire/src/USI_TWI_Master/USI_TWI_Master.c:186
          USI_TWI_state.errorState = USI_TWI_NO_ACK_ON_ADDRESS;
     62e:	86 e0       	ldi	r24, 0x06	; 6
     630:	db cf       	rjmp	.-74     	; 0x5e8 <USI_TWI_Start_Transceiver_With_Data_Stop+0x42>
/home/user/.arduino15/packages/ATTinyCore/hardware/avr/1.5.2/libraries/Wire/src/USI_TWI_Master/USI_TWI_Master.c:188
        else
          USI_TWI_state.errorState = USI_TWI_NO_ACK_ON_DATA;
     632:	85 e0       	ldi	r24, 0x05	; 5
USI_TWI_Master_Stop():
/home/user/.arduino15/packages/ATTinyCore/hardware/avr/1.5.2/libraries/Wire/src/USI_TWI_Master/USI_TWI_Master.c:264
  PORT_USI |= (1 << PIN_USI_SDA); // Release SDA.
  if (USI_TWI_MASTER_SPEED) DELAY_T2TWI_FM; else DELAY_T2TWI;

#ifdef SIGNAL_VERIFY
  if (!(USISR & (1 << USIPF))) {
    USI_TWI_state.errorState = USI_TWI_MISSING_STOP_CON;
     634:	80 93 72 01 	sts	0x0172, r24	; 0x800172 <USI_TWI_state>
     638:	da cf       	rjmp	.-76     	; 0x5ee <USI_TWI_Start_Transceiver_With_Data_Stop+0x48>
USI_TWI_Start_Transceiver_With_Data_Stop():
/home/user/.arduino15/packages/ATTinyCore/hardware/avr/1.5.2/libraries/Wire/src/USI_TWI_Master/USI_TWI_Master.c:191
          USI_TWI_state.errorState = USI_TWI_NO_ACK_ON_ADDRESS;
        else
          USI_TWI_state.errorState = USI_TWI_NO_ACK_ON_DATA;
        return (FALSE);
      }
      USI_TWI_state.addressMode = FALSE; // Only perform address transmission once.
     63a:	80 91 72 01 	lds	r24, 0x0172	; 0x800172 <USI_TWI_state>
     63e:	8e 7f       	andi	r24, 0xFE	; 254
     640:	80 93 72 01 	sts	0x0172, r24	; 0x800172 <USI_TWI_state>
/home/user/.arduino15/packages/ATTinyCore/hardware/avr/1.5.2/libraries/Wire/src/USI_TWI_Master/USI_TWI_Master.c:208
      } else {
        USIDR = 0x00; // Load ACK. Set data register bit 7 (output for SDA) low.
      }
      USI_TWI_Master_Transfer(tempUSISR_1bit); // Generate ACK/NACK.
    }
  } while (--msgSize); // Until all data sent/received.
     644:	01 50       	subi	r16, 0x01	; 1
     646:	21 96       	adiw	r28, 0x01	; 1
     648:	01 11       	cpse	r16, r1
     64a:	db cf       	rjmp	.-74     	; 0x602 <USI_TWI_Start_Transceiver_With_Data_Stop+0x5c>
/home/user/.arduino15/packages/ATTinyCore/hardware/avr/1.5.2/libraries/Wire/src/USI_TWI_Master/USI_TWI_Master.c:210

  if (stop) {
     64c:	11 11       	cpse	r17, r1
     64e:	10 c0       	rjmp	.+32     	; 0x670 <USI_TWI_Start_Transceiver_With_Data_Stop+0xca>
/home/user/.arduino15/packages/ATTinyCore/hardware/avr/1.5.2/libraries/Wire/src/USI_TWI_Master/USI_TWI_Master.c:215
    USI_TWI_Master_Stop(); // Send a STOP condition on the TWI bus.
  }

  /* Transmission successfully completed*/
  return (TRUE);
     650:	11 e0       	ldi	r17, 0x01	; 1
     652:	cd cf       	rjmp	.-102    	; 0x5ee <USI_TWI_Start_Transceiver_With_Data_Stop+0x48>
/home/user/.arduino15/packages/ATTinyCore/hardware/avr/1.5.2/libraries/Wire/src/USI_TWI_Master/USI_TWI_Master.c:196
      USI_TWI_state.addressMode = FALSE; // Only perform address transmission once.
    }
    /* Else masterRead cycle*/
    else {
      /* Read a data byte */
      DDR_USI &= ~(1 << PIN_USI_SDA); // Enable SDA as input.
     654:	61 98       	cbi	0x0c, 1	; 12
/home/user/.arduino15/packages/ATTinyCore/hardware/avr/1.5.2/libraries/Wire/src/USI_TWI_Master/USI_TWI_Master.c:197
      *(msg++) = USI_TWI_Master_Transfer(tempUSISR_8bit);
     656:	80 ef       	ldi	r24, 0xF0	; 240
     658:	0e 94 ba 02 	call	0x574	; 0x574 <USI_TWI_Master_Transfer>
     65c:	88 83       	st	Y, r24
/home/user/.arduino15/packages/ATTinyCore/hardware/avr/1.5.2/libraries/Wire/src/USI_TWI_Master/USI_TWI_Master.c:200

      /* Prepare to generate ACK (or NACK in case of End Of Transmission) */
      if (msgSize == 1) // If transmission of last byte was performed.
     65e:	01 30       	cpi	r16, 0x01	; 1
     660:	29 f4       	brne	.+10     	; 0x66c <USI_TWI_Start_Transceiver_With_Data_Stop+0xc6>
/home/user/.arduino15/packages/ATTinyCore/hardware/avr/1.5.2/libraries/Wire/src/USI_TWI_Master/USI_TWI_Master.c:202
      {
        USIDR = 0xFF; // Load NACK to confirm End Of Transmission.
     662:	fc bc       	out	0x2c, r15	; 44
/home/user/.arduino15/packages/ATTinyCore/hardware/avr/1.5.2/libraries/Wire/src/USI_TWI_Master/USI_TWI_Master.c:206
      } else {
        USIDR = 0x00; // Load ACK. Set data register bit 7 (output for SDA) low.
      }
      USI_TWI_Master_Transfer(tempUSISR_1bit); // Generate ACK/NACK.
     664:	8e ef       	ldi	r24, 0xFE	; 254
     666:	0e 94 ba 02 	call	0x574	; 0x574 <USI_TWI_Master_Transfer>
     66a:	ec cf       	rjmp	.-40     	; 0x644 <USI_TWI_Start_Transceiver_With_Data_Stop+0x9e>
/home/user/.arduino15/packages/ATTinyCore/hardware/avr/1.5.2/libraries/Wire/src/USI_TWI_Master/USI_TWI_Master.c:204
      /* Prepare to generate ACK (or NACK in case of End Of Transmission) */
      if (msgSize == 1) // If transmission of last byte was performed.
      {
        USIDR = 0xFF; // Load NACK to confirm End Of Transmission.
      } else {
        USIDR = 0x00; // Load ACK. Set data register bit 7 (output for SDA) low.
     66c:	1c bc       	out	0x2c, r1	; 44
     66e:	fa cf       	rjmp	.-12     	; 0x664 <USI_TWI_Start_Transceiver_With_Data_Stop+0xbe>
USI_TWI_Master_Stop():
/home/user/.arduino15/packages/ATTinyCore/hardware/avr/1.5.2/libraries/Wire/src/USI_TWI_Master/USI_TWI_Master.c:254
 Function for generating a TWI Stop Condition. Used to release
 the TWI bus.
---------------------------------------------------------------*/
unsigned char USI_TWI_Master_Stop(void)
{
  PORT_USI &= ~(1 << PIN_USI_SDA); // Pull SDA low.
     670:	69 98       	cbi	0x0d, 1	; 13
/home/user/.arduino15/packages/ATTinyCore/hardware/avr/1.5.2/libraries/Wire/src/USI_TWI_Master/USI_TWI_Master.c:255
  PORT_USI_CL |= (1 << PIN_USI_SCL);  // Release SCL.
     672:	49 9a       	sbi	0x09, 1	; 9
/home/user/.arduino15/packages/ATTinyCore/hardware/avr/1.5.2/libraries/Wire/src/USI_TWI_Master/USI_TWI_Master.c:256
  while (!(PIN_USI_CL & (1 << PIN_USI_SCL)))
     674:	39 9b       	sbis	0x07, 1	; 7
     676:	fe cf       	rjmp	.-4      	; 0x674 <USI_TWI_Start_Transceiver_With_Data_Stop+0xce>
_delay_loop_1():
/home/user/.arduino15/packages/arduino/tools/avr-gcc/7.3.0-atmel3.6.1-arduino7/avr/include/util/delay_basic.h:83
     678:	84 e0       	ldi	r24, 0x04	; 4
     67a:	8a 95       	dec	r24
     67c:	f1 f7       	brne	.-4      	; 0x67a <USI_TWI_Start_Transceiver_With_Data_Stop+0xd4>
USI_TWI_Master_Stop():
/home/user/.arduino15/packages/ATTinyCore/hardware/avr/1.5.2/libraries/Wire/src/USI_TWI_Master/USI_TWI_Master.c:259
    ; // Wait for SCL to go high.
  if (USI_TWI_MASTER_SPEED) DELAY_T4TWI_FM; else DELAY_T4TWI;
  PORT_USI |= (1 << PIN_USI_SDA); // Release SDA.
     67e:	69 9a       	sbi	0x0d, 1	; 13
_delay_loop_1():
/home/user/.arduino15/packages/arduino/tools/avr-gcc/7.3.0-atmel3.6.1-arduino7/avr/include/util/delay_basic.h:83
     680:	85 e0       	ldi	r24, 0x05	; 5
     682:	8a 95       	dec	r24
     684:	f1 f7       	brne	.-4      	; 0x682 <USI_TWI_Start_Transceiver_With_Data_Stop+0xdc>
USI_TWI_Master_Stop():
/home/user/.arduino15/packages/ATTinyCore/hardware/avr/1.5.2/libraries/Wire/src/USI_TWI_Master/USI_TWI_Master.c:263
  if (USI_TWI_MASTER_SPEED) DELAY_T2TWI_FM; else DELAY_T2TWI;

#ifdef SIGNAL_VERIFY
  if (!(USISR & (1 << USIPF))) {
     686:	0b b4       	in	r0, 0x2b	; 43
     688:	05 fc       	sbrc	r0, 5
     68a:	e2 cf       	rjmp	.-60     	; 0x650 <USI_TWI_Start_Transceiver_With_Data_Stop+0xaa>
/home/user/.arduino15/packages/ATTinyCore/hardware/avr/1.5.2/libraries/Wire/src/USI_TWI_Master/USI_TWI_Master.c:264
    USI_TWI_state.errorState = USI_TWI_MISSING_STOP_CON;
     68c:	88 e0       	ldi	r24, 0x08	; 8
     68e:	d2 cf       	rjmp	.-92     	; 0x634 <USI_TWI_Start_Transceiver_With_Data_Stop+0x8e>

00000690 <TwoWire::endTransmission() [clone .constprop.54]>:
endTransmission():
/home/user/.arduino15/packages/ATTinyCore/hardware/avr/1.5.2/libraries/Wire/src/Wire.cpp:478

uint8_t TwoWire::endTransmission(uint8_t sendStop) {
  // transmit buffer (blocking)
  uint8_t ret = USI_TWI_Start_Transceiver_With_Data_Stop(Buffer,
                                                         BufferLength,
                                                         sendStop);
     690:	41 e0       	ldi	r20, 0x01	; 1
     692:	60 91 76 01 	lds	r22, 0x0176	; 0x800176 <TwoWire::BufferLength>
     696:	82 e4       	ldi	r24, 0x42	; 66
     698:	91 e0       	ldi	r25, 0x01	; 1
     69a:	0e 94 d3 02 	call	0x5a6	; 0x5a6 <USI_TWI_Start_Transceiver_With_Data_Stop>
/home/user/.arduino15/packages/ATTinyCore/hardware/avr/1.5.2/libraries/Wire/src/Wire.cpp:480
  // reset tx buffer iterator vars
  BufferIndex = 0;
     69e:	10 92 75 01 	sts	0x0175, r1	; 0x800175 <TwoWire::BufferIndex>
/home/user/.arduino15/packages/ATTinyCore/hardware/avr/1.5.2/libraries/Wire/src/Wire.cpp:481
  BufferLength = 0;
     6a2:	10 92 76 01 	sts	0x0176, r1	; 0x800176 <TwoWire::BufferLength>
/home/user/.arduino15/packages/ATTinyCore/hardware/avr/1.5.2/libraries/Wire/src/Wire.cpp:483
  // indicate that we are done transmitting
  transmitting = 0;
     6a6:	10 92 77 01 	sts	0x0177, r1	; 0x800177 <TwoWire::transmitting>
/home/user/.arduino15/packages/ATTinyCore/hardware/avr/1.5.2/libraries/Wire/src/Wire.cpp:485
  // check for error
  if (ret == FALSE) {
     6aa:	81 11       	cpse	r24, r1
     6ac:	10 c0       	rjmp	.+32     	; 0x6ce <TwoWire::endTransmission() [clone .constprop.54]+0x3e>
/home/user/.arduino15/packages/ATTinyCore/hardware/avr/1.5.2/libraries/Wire/src/Wire.cpp:486
    switch (USI_TWI_Get_State_Info()) {
     6ae:	80 91 72 01 	lds	r24, 0x0172	; 0x800172 <USI_TWI_state>
     6b2:	85 30       	cpi	r24, 0x05	; 5
     6b4:	41 f0       	breq	.+16     	; 0x6c6 <TwoWire::endTransmission() [clone .constprop.54]+0x36>
     6b6:	86 30       	cpi	r24, 0x06	; 6
     6b8:	21 f0       	breq	.+8      	; 0x6c2 <TwoWire::endTransmission() [clone .constprop.54]+0x32>
     6ba:	81 30       	cpi	r24, 0x01	; 1
     6bc:	31 f4       	brne	.+12     	; 0x6ca <TwoWire::endTransmission() [clone .constprop.54]+0x3a>
/home/user/.arduino15/packages/ATTinyCore/hardware/avr/1.5.2/libraries/Wire/src/Wire.cpp:488
    case USI_TWI_DATA_OUT_OF_BOUND:
      return 1; //data too long to fit in transmit buffer
     6be:	81 e0       	ldi	r24, 0x01	; 1
/home/user/.arduino15/packages/ATTinyCore/hardware/avr/1.5.2/libraries/Wire/src/Wire.cpp:501
  return 0; //success
}

uint8_t TwoWire::endTransmission(void) {
  return endTransmission(true);
}
     6c0:	08 95       	ret
/home/user/.arduino15/packages/ATTinyCore/hardware/avr/1.5.2/libraries/Wire/src/Wire.cpp:490
  if (ret == FALSE) {
    switch (USI_TWI_Get_State_Info()) {
    case USI_TWI_DATA_OUT_OF_BOUND:
      return 1; //data too long to fit in transmit buffer
    case USI_TWI_NO_ACK_ON_ADDRESS:
      return 2; //received NACK on transmit of address
     6c2:	82 e0       	ldi	r24, 0x02	; 2
     6c4:	08 95       	ret
/home/user/.arduino15/packages/ATTinyCore/hardware/avr/1.5.2/libraries/Wire/src/Wire.cpp:492
    case USI_TWI_NO_ACK_ON_DATA:
      return 3; //received NACK on transmit of data
     6c6:	83 e0       	ldi	r24, 0x03	; 3
     6c8:	08 95       	ret
/home/user/.arduino15/packages/ATTinyCore/hardware/avr/1.5.2/libraries/Wire/src/Wire.cpp:494
    }
    return 4; //other error
     6ca:	84 e0       	ldi	r24, 0x04	; 4
     6cc:	08 95       	ret
/home/user/.arduino15/packages/ATTinyCore/hardware/avr/1.5.2/libraries/Wire/src/Wire.cpp:496
  }
  return 0; //success
     6ce:	80 e0       	ldi	r24, 0x00	; 0
     6d0:	08 95       	ret

000006d2 <RF24::endTransaction() [clone .constprop.39]>:
csn():
/media/user/Data/Documents/AVR/AVR/libraries/RF24/RF24.cpp:52
      if(!mode)
	    _SPI.chipSelect(csn_pin);
#endif

#if !defined (RF24_LINUX)
	digitalWrite(csn_pin,mode);
     6d2:	61 e0       	ldi	r22, 0x01	; 1
     6d4:	80 91 e1 01 	lds	r24, 0x01E1	; 0x8001e1 <radio+0x2>
     6d8:	0c 94 bd 01 	jmp	0x37a	; 0x37a <digitalWrite>

000006dc <RF24::beginTransaction() [clone .constprop.38]>:
     6dc:	60 e0       	ldi	r22, 0x00	; 0
     6de:	80 91 e1 01 	lds	r24, 0x01E1	; 0x8001e1 <radio+0x2>
     6e2:	0c 94 bd 01 	jmp	0x37a	; 0x37a <digitalWrite>

000006e6 <RF24::spiTrans(unsigned char) [clone .constprop.37]>:
spiTrans():
/media/user/Data/Documents/AVR/AVR/libraries/RF24/RF24.cpp:333
  return spiTrans( FLUSH_TX );
}

/****************************************************************************/

uint8_t RF24::spiTrans(uint8_t cmd){
     6e6:	cf 93       	push	r28
     6e8:	df 93       	push	r29
     6ea:	d8 2f       	mov	r29, r24
/media/user/Data/Documents/AVR/AVR/libraries/RF24/RF24.cpp:337

  uint8_t status;
  
  beginTransaction();
     6ec:	0e 94 6e 03 	call	0x6dc	; 0x6dc <RF24::beginTransaction() [clone .constprop.38]>
_ZN7SoftSPIILh6ELh3ELh7ELh0EE11transferBitEhPhh():
/media/user/Data/Documents/AVR/AVR/libraries/DigitalIO/src/SoftSPI.h:151
  inline __attribute__((always_inline))
  void transferBit(uint8_t bit, uint8_t* rxData, uint8_t txData) {
    if (MODE_CPHA(Mode)) {
      fastDigitalWrite(SckPin, !MODE_CPOL(Mode));
    }
    fastDigitalWrite(MosiPin, txData & (1 << bit));
     6f0:	8d 2f       	mov	r24, r29
     6f2:	90 e0       	ldi	r25, 0x00	; 0
fastBitWriteSafe():
/media/user/Data/Documents/AVR/AVR/libraries/DigitalIO/src/DigitalPin.h:113
  if (address > reinterpret_cast<uint8_t*>(0X3F)) {
    s = SREG;
    cli();
  }
  if (level) {
    *address |= mask;
     6f4:	8d 9a       	sbi	0x11, 5	; 17
     6f6:	89 9a       	sbi	0x11, 1	; 17
_ZN7SoftSPIILh6ELh3ELh7ELh0EE11transferBitEhPhh():
/media/user/Data/Documents/AVR/AVR/libraries/DigitalIO/src/SoftSPI.h:154
    fastDigitalWrite(SckPin,
      MODE_CPHA(Mode) ? MODE_CPOL(Mode) : !MODE_CPOL(Mode));
    if (fastDigitalRead(MisoPin)) *rxData |= 1 << bit;
     6f8:	7a 9b       	sbis	0x0f, 2	; 15
     6fa:	3c c0       	rjmp	.+120    	; 0x774 <RF24::spiTrans(unsigned char) [clone .constprop.37]+0x8e>
spiTrans():
     6fc:	c0 e8       	ldi	r28, 0x80	; 128
fastBitWriteSafe():
/media/user/Data/Documents/AVR/AVR/libraries/DigitalIO/src/DigitalPin.h:115
  } else {
    *address &= ~mask;
     6fe:	89 98       	cbi	0x11, 1	; 17
/media/user/Data/Documents/AVR/AVR/libraries/DigitalIO/src/DigitalPin.h:113
  if (address > reinterpret_cast<uint8_t*>(0X3F)) {
    s = SREG;
    cli();
  }
  if (level) {
    *address |= mask;
     700:	8d 9a       	sbi	0x11, 5	; 17
     702:	89 9a       	sbi	0x11, 1	; 17
_ZN7SoftSPIILh6ELh3ELh7ELh0EE11transferBitEhPhh():
/media/user/Data/Documents/AVR/AVR/libraries/DigitalIO/src/SoftSPI.h:154
     704:	7a 99       	sbic	0x0f, 2	; 15
     706:	c0 64       	ori	r28, 0x40	; 64
fastBitWriteSafe():
/media/user/Data/Documents/AVR/AVR/libraries/DigitalIO/src/DigitalPin.h:115
  } else {
    *address &= ~mask;
     708:	89 98       	cbi	0x11, 1	; 17
/media/user/Data/Documents/AVR/AVR/libraries/DigitalIO/src/DigitalPin.h:113
  if (address > reinterpret_cast<uint8_t*>(0X3F)) {
    s = SREG;
    cli();
  }
  if (level) {
    *address |= mask;
     70a:	8d 9a       	sbi	0x11, 5	; 17
     70c:	89 9a       	sbi	0x11, 1	; 17
_ZN7SoftSPIILh6ELh3ELh7ELh0EE11transferBitEhPhh():
/media/user/Data/Documents/AVR/AVR/libraries/DigitalIO/src/SoftSPI.h:154
     70e:	7a 99       	sbic	0x0f, 2	; 15
     710:	c0 62       	ori	r28, 0x20	; 32
fastBitWriteSafe():
/media/user/Data/Documents/AVR/AVR/libraries/DigitalIO/src/DigitalPin.h:115
  } else {
    *address &= ~mask;
     712:	89 98       	cbi	0x11, 1	; 17
_ZN7SoftSPIILh6ELh3ELh7ELh0EE11transferBitEhPhh():
/media/user/Data/Documents/AVR/AVR/libraries/DigitalIO/src/SoftSPI.h:151
  inline __attribute__((always_inline))
  void transferBit(uint8_t bit, uint8_t* rxData, uint8_t txData) {
    if (MODE_CPHA(Mode)) {
      fastDigitalWrite(SckPin, !MODE_CPOL(Mode));
    }
    fastDigitalWrite(MosiPin, txData & (1 << bit));
     714:	9c 01       	movw	r18, r24
     716:	94 e0       	ldi	r25, 0x04	; 4
     718:	35 95       	asr	r19
     71a:	27 95       	ror	r18
     71c:	9a 95       	dec	r25
     71e:	e1 f7       	brne	.-8      	; 0x718 <RF24::spiTrans(unsigned char) [clone .constprop.37]+0x32>
fastBitWriteSafe():
/media/user/Data/Documents/AVR/AVR/libraries/DigitalIO/src/DigitalPin.h:112
  uint8_t s;
  if (address > reinterpret_cast<uint8_t*>(0X3F)) {
    s = SREG;
    cli();
  }
  if (level) {
     720:	2e 30       	cpi	r18, 0x0E	; 14
     722:	31 05       	cpc	r19, r1
     724:	49 f1       	breq	.+82     	; 0x778 <RF24::spiTrans(unsigned char) [clone .constprop.37]+0x92>
/media/user/Data/Documents/AVR/AVR/libraries/DigitalIO/src/DigitalPin.h:113
    *address |= mask;
     726:	8d 9a       	sbi	0x11, 5	; 17
     728:	89 9a       	sbi	0x11, 1	; 17
_ZN7SoftSPIILh6ELh3ELh7ELh0EE11transferBitEhPhh():
/media/user/Data/Documents/AVR/AVR/libraries/DigitalIO/src/SoftSPI.h:154
    fastDigitalWrite(SckPin,
      MODE_CPHA(Mode) ? MODE_CPOL(Mode) : !MODE_CPOL(Mode));
    if (fastDigitalRead(MisoPin)) *rxData |= 1 << bit;
     72a:	7a 99       	sbic	0x0f, 2	; 15
     72c:	c0 61       	ori	r28, 0x10	; 16
fastBitWriteSafe():
/media/user/Data/Documents/AVR/AVR/libraries/DigitalIO/src/DigitalPin.h:115
  } else {
    *address &= ~mask;
     72e:	89 98       	cbi	0x11, 1	; 17
/media/user/Data/Documents/AVR/AVR/libraries/DigitalIO/src/DigitalPin.h:112
  uint8_t s;
  if (address > reinterpret_cast<uint8_t*>(0X3F)) {
    s = SREG;
    cli();
  }
  if (level) {
     730:	83 ff       	sbrs	r24, 3
     732:	24 c0       	rjmp	.+72     	; 0x77c <RF24::spiTrans(unsigned char) [clone .constprop.37]+0x96>
/media/user/Data/Documents/AVR/AVR/libraries/DigitalIO/src/DigitalPin.h:113
    *address |= mask;
     734:	8d 9a       	sbi	0x11, 5	; 17
     736:	89 9a       	sbi	0x11, 1	; 17
_ZN7SoftSPIILh6ELh3ELh7ELh0EE11transferBitEhPhh():
/media/user/Data/Documents/AVR/AVR/libraries/DigitalIO/src/SoftSPI.h:154
     738:	7a 99       	sbic	0x0f, 2	; 15
     73a:	c8 60       	ori	r28, 0x08	; 8
fastBitWriteSafe():
/media/user/Data/Documents/AVR/AVR/libraries/DigitalIO/src/DigitalPin.h:115
  } else {
    *address &= ~mask;
     73c:	89 98       	cbi	0x11, 1	; 17
/media/user/Data/Documents/AVR/AVR/libraries/DigitalIO/src/DigitalPin.h:112
  uint8_t s;
  if (address > reinterpret_cast<uint8_t*>(0X3F)) {
    s = SREG;
    cli();
  }
  if (level) {
     73e:	82 ff       	sbrs	r24, 2
     740:	1f c0       	rjmp	.+62     	; 0x780 <RF24::spiTrans(unsigned char) [clone .constprop.37]+0x9a>
/media/user/Data/Documents/AVR/AVR/libraries/DigitalIO/src/DigitalPin.h:113
    *address |= mask;
     742:	8d 9a       	sbi	0x11, 5	; 17
     744:	89 9a       	sbi	0x11, 1	; 17
_ZN7SoftSPIILh6ELh3ELh7ELh0EE11transferBitEhPhh():
/media/user/Data/Documents/AVR/AVR/libraries/DigitalIO/src/SoftSPI.h:154
     746:	7a 99       	sbic	0x0f, 2	; 15
     748:	c4 60       	ori	r28, 0x04	; 4
fastBitWriteSafe():
/media/user/Data/Documents/AVR/AVR/libraries/DigitalIO/src/DigitalPin.h:115
  } else {
    *address &= ~mask;
     74a:	89 98       	cbi	0x11, 1	; 17
/media/user/Data/Documents/AVR/AVR/libraries/DigitalIO/src/DigitalPin.h:112
  uint8_t s;
  if (address > reinterpret_cast<uint8_t*>(0X3F)) {
    s = SREG;
    cli();
  }
  if (level) {
     74c:	81 ff       	sbrs	r24, 1
     74e:	1a c0       	rjmp	.+52     	; 0x784 <RF24::spiTrans(unsigned char) [clone .constprop.37]+0x9e>
/media/user/Data/Documents/AVR/AVR/libraries/DigitalIO/src/DigitalPin.h:113
    *address |= mask;
     750:	8d 9a       	sbi	0x11, 5	; 17
     752:	89 9a       	sbi	0x11, 1	; 17
_ZN7SoftSPIILh6ELh3ELh7ELh0EE11transferBitEhPhh():
/media/user/Data/Documents/AVR/AVR/libraries/DigitalIO/src/SoftSPI.h:154
     754:	7a 99       	sbic	0x0f, 2	; 15
     756:	c2 60       	ori	r28, 0x02	; 2
fastBitWriteSafe():
/media/user/Data/Documents/AVR/AVR/libraries/DigitalIO/src/DigitalPin.h:115
  } else {
    *address &= ~mask;
     758:	89 98       	cbi	0x11, 1	; 17
/media/user/Data/Documents/AVR/AVR/libraries/DigitalIO/src/DigitalPin.h:112
  uint8_t s;
  if (address > reinterpret_cast<uint8_t*>(0X3F)) {
    s = SREG;
    cli();
  }
  if (level) {
     75a:	d0 ff       	sbrs	r29, 0
     75c:	15 c0       	rjmp	.+42     	; 0x788 <RF24::spiTrans(unsigned char) [clone .constprop.37]+0xa2>
/media/user/Data/Documents/AVR/AVR/libraries/DigitalIO/src/DigitalPin.h:113
    *address |= mask;
     75e:	8d 9a       	sbi	0x11, 5	; 17
     760:	89 9a       	sbi	0x11, 1	; 17
_ZN7SoftSPIILh6ELh3ELh7ELh0EE11transferBitEhPhh():
/media/user/Data/Documents/AVR/AVR/libraries/DigitalIO/src/SoftSPI.h:154
     762:	7a 99       	sbic	0x0f, 2	; 15
     764:	c1 60       	ori	r28, 0x01	; 1
fastBitWriteSafe():
/media/user/Data/Documents/AVR/AVR/libraries/DigitalIO/src/DigitalPin.h:115
  } else {
    *address &= ~mask;
     766:	89 98       	cbi	0x11, 1	; 17
spiTrans():
/media/user/Data/Documents/AVR/AVR/libraries/RF24/RF24.cpp:339
  status = _SPI.transfer( cmd );
  endTransaction();
     768:	0e 94 69 03 	call	0x6d2	; 0x6d2 <RF24::endTransaction() [clone .constprop.39]>
/media/user/Data/Documents/AVR/AVR/libraries/RF24/RF24.cpp:342
  
  return status;
}
     76c:	8c 2f       	mov	r24, r28
     76e:	df 91       	pop	r29
     770:	cf 91       	pop	r28
     772:	08 95       	ret
/media/user/Data/Documents/AVR/AVR/libraries/DigitalIO/src/SoftSPI.h:98
   * @param[in] txData Data byte to send.
   * @return Data byte received.
   */
  inline __attribute__((always_inline))
  uint8_t transfer(uint8_t txData) {
    uint8_t rxData = 0;
     774:	c0 e0       	ldi	r28, 0x00	; 0
     776:	c3 cf       	rjmp	.-122    	; 0x6fe <RF24::spiTrans(unsigned char) [clone .constprop.37]+0x18>
fastBitWriteSafe():
/media/user/Data/Documents/AVR/AVR/libraries/DigitalIO/src/DigitalPin.h:115
     778:	8d 98       	cbi	0x11, 5	; 17
     77a:	d6 cf       	rjmp	.-84     	; 0x728 <RF24::spiTrans(unsigned char) [clone .constprop.37]+0x42>
     77c:	8d 98       	cbi	0x11, 5	; 17
     77e:	db cf       	rjmp	.-74     	; 0x736 <RF24::spiTrans(unsigned char) [clone .constprop.37]+0x50>
     780:	8d 98       	cbi	0x11, 5	; 17
     782:	e0 cf       	rjmp	.-64     	; 0x744 <RF24::spiTrans(unsigned char) [clone .constprop.37]+0x5e>
     784:	8d 98       	cbi	0x11, 5	; 17
     786:	e5 cf       	rjmp	.-54     	; 0x752 <RF24::spiTrans(unsigned char) [clone .constprop.37]+0x6c>
     788:	8d 98       	cbi	0x11, 5	; 17
     78a:	ea cf       	rjmp	.-44     	; 0x760 <RF24::spiTrans(unsigned char) [clone .constprop.37]+0x7a>

0000078c <RF24::write_register(unsigned char, unsigned char) [clone .constprop.35]>:
write_register():
/media/user/Data/Documents/AVR/AVR/libraries/RF24/RF24.cpp:187
  return status;
}

/****************************************************************************/

uint8_t RF24::write_register(uint8_t reg, uint8_t value)
     78c:	1f 93       	push	r17
     78e:	cf 93       	push	r28
     790:	df 93       	push	r29
     792:	18 2f       	mov	r17, r24
     794:	d6 2f       	mov	r29, r22
/media/user/Data/Documents/AVR/AVR/libraries/RF24/RF24.cpp:205
	_SPI.transfernb( (char *) spi_txbuff, (char *) spi_rxbuff, 2);
	status = *prx++; // status is 1st byte of receive buffer
	endTransaction();
  #else

  beginTransaction();
     796:	0e 94 6e 03 	call	0x6dc	; 0x6dc <RF24::beginTransaction() [clone .constprop.38]>
/media/user/Data/Documents/AVR/AVR/libraries/RF24/RF24.cpp:206
  status = _SPI.transfer( W_REGISTER | ( REGISTER_MASK & reg ) );
     79a:	81 2f       	mov	r24, r17
     79c:	80 62       	ori	r24, 0x20	; 32
_ZN7SoftSPIILh6ELh3ELh7ELh0EE11transferBitEhPhh():
/media/user/Data/Documents/AVR/AVR/libraries/DigitalIO/src/SoftSPI.h:151
  inline __attribute__((always_inline))
  void transferBit(uint8_t bit, uint8_t* rxData, uint8_t txData) {
    if (MODE_CPHA(Mode)) {
      fastDigitalWrite(SckPin, !MODE_CPOL(Mode));
    }
    fastDigitalWrite(MosiPin, txData & (1 << bit));
     79e:	90 e0       	ldi	r25, 0x00	; 0
fastBitWriteSafe():
/media/user/Data/Documents/AVR/AVR/libraries/DigitalIO/src/DigitalPin.h:115
     7a0:	8d 98       	cbi	0x11, 5	; 17
/media/user/Data/Documents/AVR/AVR/libraries/DigitalIO/src/DigitalPin.h:113
  if (address > reinterpret_cast<uint8_t*>(0X3F)) {
    s = SREG;
    cli();
  }
  if (level) {
    *address |= mask;
     7a2:	89 9a       	sbi	0x11, 1	; 17
_ZN7SoftSPIILh6ELh3ELh7ELh0EE11transferBitEhPhh():
/media/user/Data/Documents/AVR/AVR/libraries/DigitalIO/src/SoftSPI.h:154
    fastDigitalWrite(SckPin,
      MODE_CPHA(Mode) ? MODE_CPOL(Mode) : !MODE_CPOL(Mode));
    if (fastDigitalRead(MisoPin)) *rxData |= 1 << bit;
     7a4:	7a 9b       	sbis	0x0f, 2	; 15
     7a6:	76 c0       	rjmp	.+236    	; 0x894 <RF24::write_register(unsigned char, unsigned char) [clone .constprop.35]+0x108>
write_register():
     7a8:	c0 e8       	ldi	r28, 0x80	; 128
fastBitWriteSafe():
/media/user/Data/Documents/AVR/AVR/libraries/DigitalIO/src/DigitalPin.h:115
  } else {
    *address &= ~mask;
     7aa:	89 98       	cbi	0x11, 1	; 17
     7ac:	8d 98       	cbi	0x11, 5	; 17
/media/user/Data/Documents/AVR/AVR/libraries/DigitalIO/src/DigitalPin.h:113
  if (address > reinterpret_cast<uint8_t*>(0X3F)) {
    s = SREG;
    cli();
  }
  if (level) {
    *address |= mask;
     7ae:	89 9a       	sbi	0x11, 1	; 17
_ZN7SoftSPIILh6ELh3ELh7ELh0EE11transferBitEhPhh():
/media/user/Data/Documents/AVR/AVR/libraries/DigitalIO/src/SoftSPI.h:154
     7b0:	7a 99       	sbic	0x0f, 2	; 15
     7b2:	c0 64       	ori	r28, 0x40	; 64
fastBitWriteSafe():
/media/user/Data/Documents/AVR/AVR/libraries/DigitalIO/src/DigitalPin.h:115
  } else {
    *address &= ~mask;
     7b4:	89 98       	cbi	0x11, 1	; 17
/media/user/Data/Documents/AVR/AVR/libraries/DigitalIO/src/DigitalPin.h:113
  if (address > reinterpret_cast<uint8_t*>(0X3F)) {
    s = SREG;
    cli();
  }
  if (level) {
    *address |= mask;
     7b6:	8d 9a       	sbi	0x11, 5	; 17
     7b8:	89 9a       	sbi	0x11, 1	; 17
_ZN7SoftSPIILh6ELh3ELh7ELh0EE11transferBitEhPhh():
/media/user/Data/Documents/AVR/AVR/libraries/DigitalIO/src/SoftSPI.h:154
     7ba:	7a 99       	sbic	0x0f, 2	; 15
     7bc:	c0 62       	ori	r28, 0x20	; 32
fastBitWriteSafe():
/media/user/Data/Documents/AVR/AVR/libraries/DigitalIO/src/DigitalPin.h:115
  } else {
    *address &= ~mask;
     7be:	89 98       	cbi	0x11, 1	; 17
_ZN7SoftSPIILh6ELh3ELh7ELh0EE11transferBitEhPhh():
/media/user/Data/Documents/AVR/AVR/libraries/DigitalIO/src/SoftSPI.h:151
  inline __attribute__((always_inline))
  void transferBit(uint8_t bit, uint8_t* rxData, uint8_t txData) {
    if (MODE_CPHA(Mode)) {
      fastDigitalWrite(SckPin, !MODE_CPOL(Mode));
    }
    fastDigitalWrite(MosiPin, txData & (1 << bit));
     7c0:	9c 01       	movw	r18, r24
     7c2:	44 e0       	ldi	r20, 0x04	; 4
     7c4:	35 95       	asr	r19
     7c6:	27 95       	ror	r18
     7c8:	4a 95       	dec	r20
     7ca:	e1 f7       	brne	.-8      	; 0x7c4 <RF24::write_register(unsigned char, unsigned char) [clone .constprop.35]+0x38>
fastBitWriteSafe():
/media/user/Data/Documents/AVR/AVR/libraries/DigitalIO/src/DigitalPin.h:112
  uint8_t s;
  if (address > reinterpret_cast<uint8_t*>(0X3F)) {
    s = SREG;
    cli();
  }
  if (level) {
     7cc:	22 30       	cpi	r18, 0x02	; 2
     7ce:	31 05       	cpc	r19, r1
     7d0:	09 f4       	brne	.+2      	; 0x7d4 <RF24::write_register(unsigned char, unsigned char) [clone .constprop.35]+0x48>
     7d2:	62 c0       	rjmp	.+196    	; 0x898 <RF24::write_register(unsigned char, unsigned char) [clone .constprop.35]+0x10c>
/media/user/Data/Documents/AVR/AVR/libraries/DigitalIO/src/DigitalPin.h:113
    *address |= mask;
     7d4:	8d 9a       	sbi	0x11, 5	; 17
     7d6:	89 9a       	sbi	0x11, 1	; 17
_ZN7SoftSPIILh6ELh3ELh7ELh0EE11transferBitEhPhh():
/media/user/Data/Documents/AVR/AVR/libraries/DigitalIO/src/SoftSPI.h:154
    fastDigitalWrite(SckPin,
      MODE_CPHA(Mode) ? MODE_CPOL(Mode) : !MODE_CPOL(Mode));
    if (fastDigitalRead(MisoPin)) *rxData |= 1 << bit;
     7d8:	7a 99       	sbic	0x0f, 2	; 15
     7da:	c0 61       	ori	r28, 0x10	; 16
fastBitWriteSafe():
/media/user/Data/Documents/AVR/AVR/libraries/DigitalIO/src/DigitalPin.h:115
  } else {
    *address &= ~mask;
     7dc:	89 98       	cbi	0x11, 1	; 17
/media/user/Data/Documents/AVR/AVR/libraries/DigitalIO/src/DigitalPin.h:112
  uint8_t s;
  if (address > reinterpret_cast<uint8_t*>(0X3F)) {
    s = SREG;
    cli();
  }
  if (level) {
     7de:	83 ff       	sbrs	r24, 3
     7e0:	5d c0       	rjmp	.+186    	; 0x89c <RF24::write_register(unsigned char, unsigned char) [clone .constprop.35]+0x110>
/media/user/Data/Documents/AVR/AVR/libraries/DigitalIO/src/DigitalPin.h:113
    *address |= mask;
     7e2:	8d 9a       	sbi	0x11, 5	; 17
     7e4:	89 9a       	sbi	0x11, 1	; 17
_ZN7SoftSPIILh6ELh3ELh7ELh0EE11transferBitEhPhh():
/media/user/Data/Documents/AVR/AVR/libraries/DigitalIO/src/SoftSPI.h:154
     7e6:	7a 99       	sbic	0x0f, 2	; 15
     7e8:	c8 60       	ori	r28, 0x08	; 8
fastBitWriteSafe():
/media/user/Data/Documents/AVR/AVR/libraries/DigitalIO/src/DigitalPin.h:115
  } else {
    *address &= ~mask;
     7ea:	89 98       	cbi	0x11, 1	; 17
/media/user/Data/Documents/AVR/AVR/libraries/DigitalIO/src/DigitalPin.h:112
  uint8_t s;
  if (address > reinterpret_cast<uint8_t*>(0X3F)) {
    s = SREG;
    cli();
  }
  if (level) {
     7ec:	82 ff       	sbrs	r24, 2
     7ee:	58 c0       	rjmp	.+176    	; 0x8a0 <RF24::write_register(unsigned char, unsigned char) [clone .constprop.35]+0x114>
/media/user/Data/Documents/AVR/AVR/libraries/DigitalIO/src/DigitalPin.h:113
    *address |= mask;
     7f0:	8d 9a       	sbi	0x11, 5	; 17
     7f2:	89 9a       	sbi	0x11, 1	; 17
_ZN7SoftSPIILh6ELh3ELh7ELh0EE11transferBitEhPhh():
/media/user/Data/Documents/AVR/AVR/libraries/DigitalIO/src/SoftSPI.h:154
     7f4:	7a 99       	sbic	0x0f, 2	; 15
     7f6:	c4 60       	ori	r28, 0x04	; 4
fastBitWriteSafe():
/media/user/Data/Documents/AVR/AVR/libraries/DigitalIO/src/DigitalPin.h:115
  } else {
    *address &= ~mask;
     7f8:	89 98       	cbi	0x11, 1	; 17
/media/user/Data/Documents/AVR/AVR/libraries/DigitalIO/src/DigitalPin.h:112
  uint8_t s;
  if (address > reinterpret_cast<uint8_t*>(0X3F)) {
    s = SREG;
    cli();
  }
  if (level) {
     7fa:	81 ff       	sbrs	r24, 1
     7fc:	53 c0       	rjmp	.+166    	; 0x8a4 <RF24::write_register(unsigned char, unsigned char) [clone .constprop.35]+0x118>
/media/user/Data/Documents/AVR/AVR/libraries/DigitalIO/src/DigitalPin.h:113
    *address |= mask;
     7fe:	8d 9a       	sbi	0x11, 5	; 17
     800:	89 9a       	sbi	0x11, 1	; 17
_ZN7SoftSPIILh6ELh3ELh7ELh0EE11transferBitEhPhh():
/media/user/Data/Documents/AVR/AVR/libraries/DigitalIO/src/SoftSPI.h:154
     802:	7a 99       	sbic	0x0f, 2	; 15
     804:	c2 60       	ori	r28, 0x02	; 2
fastBitWriteSafe():
/media/user/Data/Documents/AVR/AVR/libraries/DigitalIO/src/DigitalPin.h:115
  } else {
    *address &= ~mask;
     806:	89 98       	cbi	0x11, 1	; 17
/media/user/Data/Documents/AVR/AVR/libraries/DigitalIO/src/DigitalPin.h:112
  uint8_t s;
  if (address > reinterpret_cast<uint8_t*>(0X3F)) {
    s = SREG;
    cli();
  }
  if (level) {
     808:	10 ff       	sbrs	r17, 0
     80a:	4e c0       	rjmp	.+156    	; 0x8a8 <RF24::write_register(unsigned char, unsigned char) [clone .constprop.35]+0x11c>
/media/user/Data/Documents/AVR/AVR/libraries/DigitalIO/src/DigitalPin.h:113
    *address |= mask;
     80c:	8d 9a       	sbi	0x11, 5	; 17
     80e:	89 9a       	sbi	0x11, 1	; 17
_ZN7SoftSPIILh6ELh3ELh7ELh0EE11transferBitEhPhh():
/media/user/Data/Documents/AVR/AVR/libraries/DigitalIO/src/SoftSPI.h:154
     810:	7a 99       	sbic	0x0f, 2	; 15
     812:	c1 60       	ori	r28, 0x01	; 1
fastBitWriteSafe():
/media/user/Data/Documents/AVR/AVR/libraries/DigitalIO/src/DigitalPin.h:115
  } else {
    *address &= ~mask;
     814:	89 98       	cbi	0x11, 1	; 17
_ZN7SoftSPIILh6ELh3ELh7ELh0EE11transferBitEhPhh():
/media/user/Data/Documents/AVR/AVR/libraries/DigitalIO/src/SoftSPI.h:151
  inline __attribute__((always_inline))
  void transferBit(uint8_t bit, uint8_t* rxData, uint8_t txData) {
    if (MODE_CPHA(Mode)) {
      fastDigitalWrite(SckPin, !MODE_CPOL(Mode));
    }
    fastDigitalWrite(MosiPin, txData & (1 << bit));
     816:	8d 2f       	mov	r24, r29
     818:	90 e0       	ldi	r25, 0x00	; 0
     81a:	9c 01       	movw	r18, r24
     81c:	22 0f       	add	r18, r18
     81e:	23 2f       	mov	r18, r19
     820:	22 1f       	adc	r18, r18
     822:	33 0b       	sbc	r19, r19
fastBitWriteSafe():
/media/user/Data/Documents/AVR/AVR/libraries/DigitalIO/src/DigitalPin.h:112
  uint8_t s;
  if (address > reinterpret_cast<uint8_t*>(0X3F)) {
    s = SREG;
    cli();
  }
  if (level) {
     824:	23 2b       	or	r18, r19
     826:	09 f4       	brne	.+2      	; 0x82a <RF24::write_register(unsigned char, unsigned char) [clone .constprop.35]+0x9e>
     828:	41 c0       	rjmp	.+130    	; 0x8ac <RF24::write_register(unsigned char, unsigned char) [clone .constprop.35]+0x120>
/media/user/Data/Documents/AVR/AVR/libraries/DigitalIO/src/DigitalPin.h:113
    *address |= mask;
     82a:	8d 9a       	sbi	0x11, 5	; 17
     82c:	89 9a       	sbi	0x11, 1	; 17
fastDigitalRead():
/media/user/Data/Documents/AVR/AVR/libraries/DigitalIO/src/DigitalPin.h:128
 * @param[in] pin Arduino pin number
 * @return value read
 */
static inline __attribute__((always_inline))
bool fastDigitalRead(uint8_t pin) {
  return *pinReg(pin) & pinMask(pin);
     82e:	2f b1       	in	r18, 0x0f	; 15
fastBitWriteSafe():
/media/user/Data/Documents/AVR/AVR/libraries/DigitalIO/src/DigitalPin.h:115
    cli();
  }
  if (level) {
    *address |= mask;
  } else {
    *address &= ~mask;
     830:	89 98       	cbi	0x11, 1	; 17
/media/user/Data/Documents/AVR/AVR/libraries/DigitalIO/src/DigitalPin.h:112
  uint8_t s;
  if (address > reinterpret_cast<uint8_t*>(0X3F)) {
    s = SREG;
    cli();
  }
  if (level) {
     832:	86 ff       	sbrs	r24, 6
     834:	3d c0       	rjmp	.+122    	; 0x8b0 <RF24::write_register(unsigned char, unsigned char) [clone .constprop.35]+0x124>
/media/user/Data/Documents/AVR/AVR/libraries/DigitalIO/src/DigitalPin.h:113
    *address |= mask;
     836:	8d 9a       	sbi	0x11, 5	; 17
     838:	89 9a       	sbi	0x11, 1	; 17
fastDigitalRead():
/media/user/Data/Documents/AVR/AVR/libraries/DigitalIO/src/DigitalPin.h:128
 * @param[in] pin Arduino pin number
 * @return value read
 */
static inline __attribute__((always_inline))
bool fastDigitalRead(uint8_t pin) {
  return *pinReg(pin) & pinMask(pin);
     83a:	2f b1       	in	r18, 0x0f	; 15
fastBitWriteSafe():
/media/user/Data/Documents/AVR/AVR/libraries/DigitalIO/src/DigitalPin.h:115
    cli();
  }
  if (level) {
    *address |= mask;
  } else {
    *address &= ~mask;
     83c:	89 98       	cbi	0x11, 1	; 17
/media/user/Data/Documents/AVR/AVR/libraries/DigitalIO/src/DigitalPin.h:112
  uint8_t s;
  if (address > reinterpret_cast<uint8_t*>(0X3F)) {
    s = SREG;
    cli();
  }
  if (level) {
     83e:	85 ff       	sbrs	r24, 5
     840:	39 c0       	rjmp	.+114    	; 0x8b4 <RF24::write_register(unsigned char, unsigned char) [clone .constprop.35]+0x128>
/media/user/Data/Documents/AVR/AVR/libraries/DigitalIO/src/DigitalPin.h:113
    *address |= mask;
     842:	8d 9a       	sbi	0x11, 5	; 17
     844:	89 9a       	sbi	0x11, 1	; 17
fastDigitalRead():
/media/user/Data/Documents/AVR/AVR/libraries/DigitalIO/src/DigitalPin.h:128
 * @param[in] pin Arduino pin number
 * @return value read
 */
static inline __attribute__((always_inline))
bool fastDigitalRead(uint8_t pin) {
  return *pinReg(pin) & pinMask(pin);
     846:	2f b1       	in	r18, 0x0f	; 15
fastBitWriteSafe():
/media/user/Data/Documents/AVR/AVR/libraries/DigitalIO/src/DigitalPin.h:115
    cli();
  }
  if (level) {
    *address |= mask;
  } else {
    *address &= ~mask;
     848:	89 98       	cbi	0x11, 1	; 17
/media/user/Data/Documents/AVR/AVR/libraries/DigitalIO/src/DigitalPin.h:112
  uint8_t s;
  if (address > reinterpret_cast<uint8_t*>(0X3F)) {
    s = SREG;
    cli();
  }
  if (level) {
     84a:	84 ff       	sbrs	r24, 4
     84c:	35 c0       	rjmp	.+106    	; 0x8b8 <RF24::write_register(unsigned char, unsigned char) [clone .constprop.35]+0x12c>
/media/user/Data/Documents/AVR/AVR/libraries/DigitalIO/src/DigitalPin.h:113
    *address |= mask;
     84e:	8d 9a       	sbi	0x11, 5	; 17
     850:	89 9a       	sbi	0x11, 1	; 17
fastDigitalRead():
/media/user/Data/Documents/AVR/AVR/libraries/DigitalIO/src/DigitalPin.h:128
 * @param[in] pin Arduino pin number
 * @return value read
 */
static inline __attribute__((always_inline))
bool fastDigitalRead(uint8_t pin) {
  return *pinReg(pin) & pinMask(pin);
     852:	2f b1       	in	r18, 0x0f	; 15
fastBitWriteSafe():
/media/user/Data/Documents/AVR/AVR/libraries/DigitalIO/src/DigitalPin.h:115
    cli();
  }
  if (level) {
    *address |= mask;
  } else {
    *address &= ~mask;
     854:	89 98       	cbi	0x11, 1	; 17
/media/user/Data/Documents/AVR/AVR/libraries/DigitalIO/src/DigitalPin.h:112
  uint8_t s;
  if (address > reinterpret_cast<uint8_t*>(0X3F)) {
    s = SREG;
    cli();
  }
  if (level) {
     856:	83 ff       	sbrs	r24, 3
     858:	31 c0       	rjmp	.+98     	; 0x8bc <RF24::write_register(unsigned char, unsigned char) [clone .constprop.35]+0x130>
/media/user/Data/Documents/AVR/AVR/libraries/DigitalIO/src/DigitalPin.h:113
    *address |= mask;
     85a:	8d 9a       	sbi	0x11, 5	; 17
     85c:	89 9a       	sbi	0x11, 1	; 17
fastDigitalRead():
/media/user/Data/Documents/AVR/AVR/libraries/DigitalIO/src/DigitalPin.h:128
 * @param[in] pin Arduino pin number
 * @return value read
 */
static inline __attribute__((always_inline))
bool fastDigitalRead(uint8_t pin) {
  return *pinReg(pin) & pinMask(pin);
     85e:	2f b1       	in	r18, 0x0f	; 15
fastBitWriteSafe():
/media/user/Data/Documents/AVR/AVR/libraries/DigitalIO/src/DigitalPin.h:115
    cli();
  }
  if (level) {
    *address |= mask;
  } else {
    *address &= ~mask;
     860:	89 98       	cbi	0x11, 1	; 17
/media/user/Data/Documents/AVR/AVR/libraries/DigitalIO/src/DigitalPin.h:112
  uint8_t s;
  if (address > reinterpret_cast<uint8_t*>(0X3F)) {
    s = SREG;
    cli();
  }
  if (level) {
     862:	82 ff       	sbrs	r24, 2
     864:	2d c0       	rjmp	.+90     	; 0x8c0 <RF24::write_register(unsigned char, unsigned char) [clone .constprop.35]+0x134>
/media/user/Data/Documents/AVR/AVR/libraries/DigitalIO/src/DigitalPin.h:113
    *address |= mask;
     866:	8d 9a       	sbi	0x11, 5	; 17
     868:	89 9a       	sbi	0x11, 1	; 17
fastDigitalRead():
/media/user/Data/Documents/AVR/AVR/libraries/DigitalIO/src/DigitalPin.h:128
 * @param[in] pin Arduino pin number
 * @return value read
 */
static inline __attribute__((always_inline))
bool fastDigitalRead(uint8_t pin) {
  return *pinReg(pin) & pinMask(pin);
     86a:	9f b1       	in	r25, 0x0f	; 15
fastBitWriteSafe():
/media/user/Data/Documents/AVR/AVR/libraries/DigitalIO/src/DigitalPin.h:115
    cli();
  }
  if (level) {
    *address |= mask;
  } else {
    *address &= ~mask;
     86c:	89 98       	cbi	0x11, 1	; 17
/media/user/Data/Documents/AVR/AVR/libraries/DigitalIO/src/DigitalPin.h:112
  uint8_t s;
  if (address > reinterpret_cast<uint8_t*>(0X3F)) {
    s = SREG;
    cli();
  }
  if (level) {
     86e:	81 ff       	sbrs	r24, 1
     870:	29 c0       	rjmp	.+82     	; 0x8c4 <RF24::write_register(unsigned char, unsigned char) [clone .constprop.35]+0x138>
/media/user/Data/Documents/AVR/AVR/libraries/DigitalIO/src/DigitalPin.h:113
    *address |= mask;
     872:	8d 9a       	sbi	0x11, 5	; 17
     874:	89 9a       	sbi	0x11, 1	; 17
fastDigitalRead():
/media/user/Data/Documents/AVR/AVR/libraries/DigitalIO/src/DigitalPin.h:128
 * @param[in] pin Arduino pin number
 * @return value read
 */
static inline __attribute__((always_inline))
bool fastDigitalRead(uint8_t pin) {
  return *pinReg(pin) & pinMask(pin);
     876:	8f b1       	in	r24, 0x0f	; 15
fastBitWriteSafe():
/media/user/Data/Documents/AVR/AVR/libraries/DigitalIO/src/DigitalPin.h:115
    cli();
  }
  if (level) {
    *address |= mask;
  } else {
    *address &= ~mask;
     878:	89 98       	cbi	0x11, 1	; 17
/media/user/Data/Documents/AVR/AVR/libraries/DigitalIO/src/DigitalPin.h:112
  uint8_t s;
  if (address > reinterpret_cast<uint8_t*>(0X3F)) {
    s = SREG;
    cli();
  }
  if (level) {
     87a:	d0 ff       	sbrs	r29, 0
     87c:	25 c0       	rjmp	.+74     	; 0x8c8 <RF24::write_register(unsigned char, unsigned char) [clone .constprop.35]+0x13c>
/media/user/Data/Documents/AVR/AVR/libraries/DigitalIO/src/DigitalPin.h:113
    *address |= mask;
     87e:	8d 9a       	sbi	0x11, 5	; 17
     880:	89 9a       	sbi	0x11, 1	; 17
fastDigitalRead():
/media/user/Data/Documents/AVR/AVR/libraries/DigitalIO/src/DigitalPin.h:128
 * @param[in] pin Arduino pin number
 * @return value read
 */
static inline __attribute__((always_inline))
bool fastDigitalRead(uint8_t pin) {
  return *pinReg(pin) & pinMask(pin);
     882:	8f b1       	in	r24, 0x0f	; 15
fastBitWriteSafe():
/media/user/Data/Documents/AVR/AVR/libraries/DigitalIO/src/DigitalPin.h:115
    cli();
  }
  if (level) {
    *address |= mask;
  } else {
    *address &= ~mask;
     884:	89 98       	cbi	0x11, 1	; 17
write_register():
/media/user/Data/Documents/AVR/AVR/libraries/RF24/RF24.cpp:208
  _SPI.transfer(value);
  endTransaction();
     886:	0e 94 69 03 	call	0x6d2	; 0x6d2 <RF24::endTransaction() [clone .constprop.39]>
/media/user/Data/Documents/AVR/AVR/libraries/RF24/RF24.cpp:213

  #endif

  return status;
}
     88a:	8c 2f       	mov	r24, r28
     88c:	df 91       	pop	r29
     88e:	cf 91       	pop	r28
     890:	1f 91       	pop	r17
     892:	08 95       	ret
/media/user/Data/Documents/AVR/AVR/libraries/DigitalIO/src/SoftSPI.h:98
   * @param[in] txData Data byte to send.
   * @return Data byte received.
   */
  inline __attribute__((always_inline))
  uint8_t transfer(uint8_t txData) {
    uint8_t rxData = 0;
     894:	c0 e0       	ldi	r28, 0x00	; 0
     896:	89 cf       	rjmp	.-238    	; 0x7aa <RF24::write_register(unsigned char, unsigned char) [clone .constprop.35]+0x1e>
fastBitWriteSafe():
/media/user/Data/Documents/AVR/AVR/libraries/DigitalIO/src/DigitalPin.h:115
     898:	8d 98       	cbi	0x11, 5	; 17
     89a:	9d cf       	rjmp	.-198    	; 0x7d6 <RF24::write_register(unsigned char, unsigned char) [clone .constprop.35]+0x4a>
     89c:	8d 98       	cbi	0x11, 5	; 17
     89e:	a2 cf       	rjmp	.-188    	; 0x7e4 <RF24::write_register(unsigned char, unsigned char) [clone .constprop.35]+0x58>
     8a0:	8d 98       	cbi	0x11, 5	; 17
     8a2:	a7 cf       	rjmp	.-178    	; 0x7f2 <RF24::write_register(unsigned char, unsigned char) [clone .constprop.35]+0x66>
     8a4:	8d 98       	cbi	0x11, 5	; 17
     8a6:	ac cf       	rjmp	.-168    	; 0x800 <RF24::write_register(unsigned char, unsigned char) [clone .constprop.35]+0x74>
     8a8:	8d 98       	cbi	0x11, 5	; 17
     8aa:	b1 cf       	rjmp	.-158    	; 0x80e <RF24::write_register(unsigned char, unsigned char) [clone .constprop.35]+0x82>
     8ac:	8d 98       	cbi	0x11, 5	; 17
     8ae:	be cf       	rjmp	.-132    	; 0x82c <RF24::write_register(unsigned char, unsigned char) [clone .constprop.35]+0xa0>
     8b0:	8d 98       	cbi	0x11, 5	; 17
     8b2:	c2 cf       	rjmp	.-124    	; 0x838 <RF24::write_register(unsigned char, unsigned char) [clone .constprop.35]+0xac>
     8b4:	8d 98       	cbi	0x11, 5	; 17
     8b6:	c6 cf       	rjmp	.-116    	; 0x844 <RF24::write_register(unsigned char, unsigned char) [clone .constprop.35]+0xb8>
     8b8:	8d 98       	cbi	0x11, 5	; 17
     8ba:	ca cf       	rjmp	.-108    	; 0x850 <RF24::write_register(unsigned char, unsigned char) [clone .constprop.35]+0xc4>
     8bc:	8d 98       	cbi	0x11, 5	; 17
     8be:	ce cf       	rjmp	.-100    	; 0x85c <RF24::write_register(unsigned char, unsigned char) [clone .constprop.35]+0xd0>
     8c0:	8d 98       	cbi	0x11, 5	; 17
     8c2:	d2 cf       	rjmp	.-92     	; 0x868 <RF24::write_register(unsigned char, unsigned char) [clone .constprop.35]+0xdc>
     8c4:	8d 98       	cbi	0x11, 5	; 17
     8c6:	d6 cf       	rjmp	.-84     	; 0x874 <RF24::write_register(unsigned char, unsigned char) [clone .constprop.35]+0xe8>
     8c8:	8d 98       	cbi	0x11, 5	; 17
     8ca:	da cf       	rjmp	.-76     	; 0x880 <RF24::write_register(unsigned char, unsigned char) [clone .constprop.35]+0xf4>

000008cc <RF24::write_register(unsigned char, unsigned char const*, unsigned char) [clone .constprop.21]>:
write_register():
/media/user/Data/Documents/AVR/AVR/libraries/RF24/RF24.cpp:155
  return result;
}

/****************************************************************************/

uint8_t RF24::write_register(uint8_t reg, const uint8_t* buf, uint8_t len)
     8cc:	cf 93       	push	r28
     8ce:	df 93       	push	r29
     8d0:	c8 2f       	mov	r28, r24
     8d2:	d6 2f       	mov	r29, r22
/media/user/Data/Documents/AVR/AVR/libraries/RF24/RF24.cpp:174
  _SPI.transfernb( (char *) spi_txbuff, (char *) spi_rxbuff, size);
  status = *prx; // status is 1st byte of receive buffer
  endTransaction();
  #else

  beginTransaction();
     8d4:	0e 94 6e 03 	call	0x6dc	; 0x6dc <RF24::beginTransaction() [clone .constprop.38]>
/media/user/Data/Documents/AVR/AVR/libraries/RF24/RF24.cpp:175
  status = _SPI.transfer( W_REGISTER | ( REGISTER_MASK & reg ) );
     8d8:	c0 62       	ori	r28, 0x20	; 32
_ZN7SoftSPIILh6ELh3ELh7ELh0EE11transferBitEhPhh():
/media/user/Data/Documents/AVR/AVR/libraries/DigitalIO/src/SoftSPI.h:151
  inline __attribute__((always_inline))
  void transferBit(uint8_t bit, uint8_t* rxData, uint8_t txData) {
    if (MODE_CPHA(Mode)) {
      fastDigitalWrite(SckPin, !MODE_CPOL(Mode));
    }
    fastDigitalWrite(MosiPin, txData & (1 << bit));
     8da:	8c 2f       	mov	r24, r28
     8dc:	90 e0       	ldi	r25, 0x00	; 0
fastBitWriteSafe():
/media/user/Data/Documents/AVR/AVR/libraries/DigitalIO/src/DigitalPin.h:115
     8de:	8d 98       	cbi	0x11, 5	; 17
/media/user/Data/Documents/AVR/AVR/libraries/DigitalIO/src/DigitalPin.h:113
  if (address > reinterpret_cast<uint8_t*>(0X3F)) {
    s = SREG;
    cli();
  }
  if (level) {
    *address |= mask;
     8e0:	89 9a       	sbi	0x11, 1	; 17
_ZN7SoftSPIILh6ELh3ELh7ELh0EE11transferBitEhPhh():
/media/user/Data/Documents/AVR/AVR/libraries/DigitalIO/src/SoftSPI.h:154
    fastDigitalWrite(SckPin,
      MODE_CPHA(Mode) ? MODE_CPOL(Mode) : !MODE_CPOL(Mode));
    if (fastDigitalRead(MisoPin)) *rxData |= 1 << bit;
     8e2:	7a 99       	sbic	0x0f, 2	; 15
     8e4:	70 c0       	rjmp	.+224    	; 0x9c6 <RF24::write_register(unsigned char, unsigned char const*, unsigned char) [clone .constprop.21]+0xfa>
write_register():
/media/user/Data/Documents/AVR/AVR/libraries/DigitalIO/src/SoftSPI.h:98
   * @param[in] txData Data byte to send.
   * @return Data byte received.
   */
  inline __attribute__((always_inline))
  uint8_t transfer(uint8_t txData) {
    uint8_t rxData = 0;
     8e6:	c0 e0       	ldi	r28, 0x00	; 0
fastBitWriteSafe():
/media/user/Data/Documents/AVR/AVR/libraries/DigitalIO/src/DigitalPin.h:115
  } else {
    *address &= ~mask;
     8e8:	89 98       	cbi	0x11, 1	; 17
     8ea:	8d 98       	cbi	0x11, 5	; 17
/media/user/Data/Documents/AVR/AVR/libraries/DigitalIO/src/DigitalPin.h:113
  if (address > reinterpret_cast<uint8_t*>(0X3F)) {
    s = SREG;
    cli();
  }
  if (level) {
    *address |= mask;
     8ec:	89 9a       	sbi	0x11, 1	; 17
_ZN7SoftSPIILh6ELh3ELh7ELh0EE11transferBitEhPhh():
/media/user/Data/Documents/AVR/AVR/libraries/DigitalIO/src/SoftSPI.h:154
      fastDigitalWrite(SckPin, !MODE_CPOL(Mode));
    }
    fastDigitalWrite(MosiPin, txData & (1 << bit));
    fastDigitalWrite(SckPin,
      MODE_CPHA(Mode) ? MODE_CPOL(Mode) : !MODE_CPOL(Mode));
    if (fastDigitalRead(MisoPin)) *rxData |= 1 << bit;
     8ee:	7a 99       	sbic	0x0f, 2	; 15
     8f0:	c0 64       	ori	r28, 0x40	; 64
fastBitWriteSafe():
/media/user/Data/Documents/AVR/AVR/libraries/DigitalIO/src/DigitalPin.h:115
  } else {
    *address &= ~mask;
     8f2:	89 98       	cbi	0x11, 1	; 17
/media/user/Data/Documents/AVR/AVR/libraries/DigitalIO/src/DigitalPin.h:113
  if (address > reinterpret_cast<uint8_t*>(0X3F)) {
    s = SREG;
    cli();
  }
  if (level) {
    *address |= mask;
     8f4:	8d 9a       	sbi	0x11, 5	; 17
     8f6:	89 9a       	sbi	0x11, 1	; 17
_ZN7SoftSPIILh6ELh3ELh7ELh0EE11transferBitEhPhh():
/media/user/Data/Documents/AVR/AVR/libraries/DigitalIO/src/SoftSPI.h:154
     8f8:	7a 99       	sbic	0x0f, 2	; 15
     8fa:	c0 62       	ori	r28, 0x20	; 32
fastBitWriteSafe():
/media/user/Data/Documents/AVR/AVR/libraries/DigitalIO/src/DigitalPin.h:115
  } else {
    *address &= ~mask;
     8fc:	89 98       	cbi	0x11, 1	; 17
_ZN7SoftSPIILh6ELh3ELh7ELh0EE11transferBitEhPhh():
/media/user/Data/Documents/AVR/AVR/libraries/DigitalIO/src/SoftSPI.h:151
  inline __attribute__((always_inline))
  void transferBit(uint8_t bit, uint8_t* rxData, uint8_t txData) {
    if (MODE_CPHA(Mode)) {
      fastDigitalWrite(SckPin, !MODE_CPOL(Mode));
    }
    fastDigitalWrite(MosiPin, txData & (1 << bit));
     8fe:	9c 01       	movw	r18, r24
     900:	44 e0       	ldi	r20, 0x04	; 4
     902:	35 95       	asr	r19
     904:	27 95       	ror	r18
     906:	4a 95       	dec	r20
     908:	e1 f7       	brne	.-8      	; 0x902 <RF24::write_register(unsigned char, unsigned char const*, unsigned char) [clone .constprop.21]+0x36>
fastBitWriteSafe():
/media/user/Data/Documents/AVR/AVR/libraries/DigitalIO/src/DigitalPin.h:112
  uint8_t s;
  if (address > reinterpret_cast<uint8_t*>(0X3F)) {
    s = SREG;
    cli();
  }
  if (level) {
     90a:	22 30       	cpi	r18, 0x02	; 2
     90c:	31 05       	cpc	r19, r1
     90e:	09 f4       	brne	.+2      	; 0x912 <RF24::write_register(unsigned char, unsigned char const*, unsigned char) [clone .constprop.21]+0x46>
     910:	5c c0       	rjmp	.+184    	; 0x9ca <RF24::write_register(unsigned char, unsigned char const*, unsigned char) [clone .constprop.21]+0xfe>
/media/user/Data/Documents/AVR/AVR/libraries/DigitalIO/src/DigitalPin.h:113
    *address |= mask;
     912:	8d 9a       	sbi	0x11, 5	; 17
     914:	89 9a       	sbi	0x11, 1	; 17
_ZN7SoftSPIILh6ELh3ELh7ELh0EE11transferBitEhPhh():
/media/user/Data/Documents/AVR/AVR/libraries/DigitalIO/src/SoftSPI.h:154
    fastDigitalWrite(SckPin,
      MODE_CPHA(Mode) ? MODE_CPOL(Mode) : !MODE_CPOL(Mode));
    if (fastDigitalRead(MisoPin)) *rxData |= 1 << bit;
     916:	7a 99       	sbic	0x0f, 2	; 15
     918:	c0 61       	ori	r28, 0x10	; 16
fastBitWriteSafe():
/media/user/Data/Documents/AVR/AVR/libraries/DigitalIO/src/DigitalPin.h:115
  } else {
    *address &= ~mask;
     91a:	89 98       	cbi	0x11, 1	; 17
/media/user/Data/Documents/AVR/AVR/libraries/DigitalIO/src/DigitalPin.h:112
  uint8_t s;
  if (address > reinterpret_cast<uint8_t*>(0X3F)) {
    s = SREG;
    cli();
  }
  if (level) {
     91c:	83 ff       	sbrs	r24, 3
     91e:	57 c0       	rjmp	.+174    	; 0x9ce <RF24::write_register(unsigned char, unsigned char const*, unsigned char) [clone .constprop.21]+0x102>
/media/user/Data/Documents/AVR/AVR/libraries/DigitalIO/src/DigitalPin.h:113
    *address |= mask;
     920:	8d 9a       	sbi	0x11, 5	; 17
     922:	89 9a       	sbi	0x11, 1	; 17
_ZN7SoftSPIILh6ELh3ELh7ELh0EE11transferBitEhPhh():
/media/user/Data/Documents/AVR/AVR/libraries/DigitalIO/src/SoftSPI.h:154
     924:	7a 99       	sbic	0x0f, 2	; 15
     926:	c8 60       	ori	r28, 0x08	; 8
fastBitWriteSafe():
/media/user/Data/Documents/AVR/AVR/libraries/DigitalIO/src/DigitalPin.h:115
  } else {
    *address &= ~mask;
     928:	89 98       	cbi	0x11, 1	; 17
     92a:	8d 98       	cbi	0x11, 5	; 17
/media/user/Data/Documents/AVR/AVR/libraries/DigitalIO/src/DigitalPin.h:113
  if (address > reinterpret_cast<uint8_t*>(0X3F)) {
    s = SREG;
    cli();
  }
  if (level) {
    *address |= mask;
     92c:	89 9a       	sbi	0x11, 1	; 17
_ZN7SoftSPIILh6ELh3ELh7ELh0EE11transferBitEhPhh():
/media/user/Data/Documents/AVR/AVR/libraries/DigitalIO/src/SoftSPI.h:154
     92e:	7a 99       	sbic	0x0f, 2	; 15
     930:	c4 60       	ori	r28, 0x04	; 4
fastBitWriteSafe():
/media/user/Data/Documents/AVR/AVR/libraries/DigitalIO/src/DigitalPin.h:115
  } else {
    *address &= ~mask;
     932:	89 98       	cbi	0x11, 1	; 17
/media/user/Data/Documents/AVR/AVR/libraries/DigitalIO/src/DigitalPin.h:112
  uint8_t s;
  if (address > reinterpret_cast<uint8_t*>(0X3F)) {
    s = SREG;
    cli();
  }
  if (level) {
     934:	81 ff       	sbrs	r24, 1
     936:	4d c0       	rjmp	.+154    	; 0x9d2 <RF24::write_register(unsigned char, unsigned char const*, unsigned char) [clone .constprop.21]+0x106>
/media/user/Data/Documents/AVR/AVR/libraries/DigitalIO/src/DigitalPin.h:113
    *address |= mask;
     938:	8d 9a       	sbi	0x11, 5	; 17
     93a:	89 9a       	sbi	0x11, 1	; 17
_ZN7SoftSPIILh6ELh3ELh7ELh0EE11transferBitEhPhh():
/media/user/Data/Documents/AVR/AVR/libraries/DigitalIO/src/SoftSPI.h:154
     93c:	7a 99       	sbic	0x0f, 2	; 15
     93e:	c2 60       	ori	r28, 0x02	; 2
fastBitWriteSafe():
/media/user/Data/Documents/AVR/AVR/libraries/DigitalIO/src/DigitalPin.h:115
  } else {
    *address &= ~mask;
     940:	89 98       	cbi	0x11, 1	; 17
     942:	8d 98       	cbi	0x11, 5	; 17
/media/user/Data/Documents/AVR/AVR/libraries/DigitalIO/src/DigitalPin.h:113
  if (address > reinterpret_cast<uint8_t*>(0X3F)) {
    s = SREG;
    cli();
  }
  if (level) {
    *address |= mask;
     944:	89 9a       	sbi	0x11, 1	; 17
_ZN7SoftSPIILh6ELh3ELh7ELh0EE11transferBitEhPhh():
/media/user/Data/Documents/AVR/AVR/libraries/DigitalIO/src/SoftSPI.h:154
     946:	7a 99       	sbic	0x0f, 2	; 15
     948:	c1 60       	ori	r28, 0x01	; 1
fastBitWriteSafe():
/media/user/Data/Documents/AVR/AVR/libraries/DigitalIO/src/DigitalPin.h:115
  } else {
    *address &= ~mask;
     94a:	89 98       	cbi	0x11, 1	; 17
     94c:	e4 e0       	ldi	r30, 0x04	; 4
     94e:	f1 e0       	ldi	r31, 0x01	; 1
write_register():
/media/user/Data/Documents/AVR/AVR/libraries/RF24/RF24.cpp:176
  while ( len-- )
     950:	d1 50       	subi	r29, 0x01	; 1
     952:	08 f4       	brcc	.+2      	; 0x956 <RF24::write_register(unsigned char, unsigned char const*, unsigned char) [clone .constprop.21]+0x8a>
     954:	50 c0       	rjmp	.+160    	; 0x9f6 <RF24::write_register(unsigned char, unsigned char const*, unsigned char) [clone .constprop.21]+0x12a>
/media/user/Data/Documents/AVR/AVR/libraries/RF24/RF24.cpp:177
    _SPI.transfer(*buf++);
     956:	81 91       	ld	r24, Z+
_ZN7SoftSPIILh6ELh3ELh7ELh0EE11transferBitEhPhh():
/media/user/Data/Documents/AVR/AVR/libraries/DigitalIO/src/SoftSPI.h:151
  inline __attribute__((always_inline))
  void transferBit(uint8_t bit, uint8_t* rxData, uint8_t txData) {
    if (MODE_CPHA(Mode)) {
      fastDigitalWrite(SckPin, !MODE_CPOL(Mode));
    }
    fastDigitalWrite(MosiPin, txData & (1 << bit));
     958:	28 2f       	mov	r18, r24
     95a:	30 e0       	ldi	r19, 0x00	; 0
     95c:	22 0f       	add	r18, r18
     95e:	23 2f       	mov	r18, r19
     960:	22 1f       	adc	r18, r18
     962:	33 0b       	sbc	r19, r19
fastBitWriteSafe():
/media/user/Data/Documents/AVR/AVR/libraries/DigitalIO/src/DigitalPin.h:112
  uint8_t s;
  if (address > reinterpret_cast<uint8_t*>(0X3F)) {
    s = SREG;
    cli();
  }
  if (level) {
     964:	23 2b       	or	r18, r19
     966:	b9 f1       	breq	.+110    	; 0x9d6 <RF24::write_register(unsigned char, unsigned char const*, unsigned char) [clone .constprop.21]+0x10a>
/media/user/Data/Documents/AVR/AVR/libraries/DigitalIO/src/DigitalPin.h:113
    *address |= mask;
     968:	8d 9a       	sbi	0x11, 5	; 17
     96a:	89 9a       	sbi	0x11, 1	; 17
fastDigitalRead():
/media/user/Data/Documents/AVR/AVR/libraries/DigitalIO/src/DigitalPin.h:128
 * @param[in] pin Arduino pin number
 * @return value read
 */
static inline __attribute__((always_inline))
bool fastDigitalRead(uint8_t pin) {
  return *pinReg(pin) & pinMask(pin);
     96c:	9f b1       	in	r25, 0x0f	; 15
fastBitWriteSafe():
/media/user/Data/Documents/AVR/AVR/libraries/DigitalIO/src/DigitalPin.h:115
    cli();
  }
  if (level) {
    *address |= mask;
  } else {
    *address &= ~mask;
     96e:	89 98       	cbi	0x11, 1	; 17
/media/user/Data/Documents/AVR/AVR/libraries/DigitalIO/src/DigitalPin.h:112
  uint8_t s;
  if (address > reinterpret_cast<uint8_t*>(0X3F)) {
    s = SREG;
    cli();
  }
  if (level) {
     970:	86 ff       	sbrs	r24, 6
     972:	33 c0       	rjmp	.+102    	; 0x9da <RF24::write_register(unsigned char, unsigned char const*, unsigned char) [clone .constprop.21]+0x10e>
/media/user/Data/Documents/AVR/AVR/libraries/DigitalIO/src/DigitalPin.h:113
    *address |= mask;
     974:	8d 9a       	sbi	0x11, 5	; 17
     976:	89 9a       	sbi	0x11, 1	; 17
fastDigitalRead():
/media/user/Data/Documents/AVR/AVR/libraries/DigitalIO/src/DigitalPin.h:128
 * @param[in] pin Arduino pin number
 * @return value read
 */
static inline __attribute__((always_inline))
bool fastDigitalRead(uint8_t pin) {
  return *pinReg(pin) & pinMask(pin);
     978:	9f b1       	in	r25, 0x0f	; 15
fastBitWriteSafe():
/media/user/Data/Documents/AVR/AVR/libraries/DigitalIO/src/DigitalPin.h:115
    cli();
  }
  if (level) {
    *address |= mask;
  } else {
    *address &= ~mask;
     97a:	89 98       	cbi	0x11, 1	; 17
/media/user/Data/Documents/AVR/AVR/libraries/DigitalIO/src/DigitalPin.h:112
  uint8_t s;
  if (address > reinterpret_cast<uint8_t*>(0X3F)) {
    s = SREG;
    cli();
  }
  if (level) {
     97c:	85 ff       	sbrs	r24, 5
     97e:	2f c0       	rjmp	.+94     	; 0x9de <RF24::write_register(unsigned char, unsigned char const*, unsigned char) [clone .constprop.21]+0x112>
/media/user/Data/Documents/AVR/AVR/libraries/DigitalIO/src/DigitalPin.h:113
    *address |= mask;
     980:	8d 9a       	sbi	0x11, 5	; 17
     982:	89 9a       	sbi	0x11, 1	; 17
fastDigitalRead():
/media/user/Data/Documents/AVR/AVR/libraries/DigitalIO/src/DigitalPin.h:128
 * @param[in] pin Arduino pin number
 * @return value read
 */
static inline __attribute__((always_inline))
bool fastDigitalRead(uint8_t pin) {
  return *pinReg(pin) & pinMask(pin);
     984:	9f b1       	in	r25, 0x0f	; 15
fastBitWriteSafe():
/media/user/Data/Documents/AVR/AVR/libraries/DigitalIO/src/DigitalPin.h:115
    cli();
  }
  if (level) {
    *address |= mask;
  } else {
    *address &= ~mask;
     986:	89 98       	cbi	0x11, 1	; 17
/media/user/Data/Documents/AVR/AVR/libraries/DigitalIO/src/DigitalPin.h:112
  uint8_t s;
  if (address > reinterpret_cast<uint8_t*>(0X3F)) {
    s = SREG;
    cli();
  }
  if (level) {
     988:	84 ff       	sbrs	r24, 4
     98a:	2b c0       	rjmp	.+86     	; 0x9e2 <RF24::write_register(unsigned char, unsigned char const*, unsigned char) [clone .constprop.21]+0x116>
/media/user/Data/Documents/AVR/AVR/libraries/DigitalIO/src/DigitalPin.h:113
    *address |= mask;
     98c:	8d 9a       	sbi	0x11, 5	; 17
     98e:	89 9a       	sbi	0x11, 1	; 17
fastDigitalRead():
/media/user/Data/Documents/AVR/AVR/libraries/DigitalIO/src/DigitalPin.h:128
 * @param[in] pin Arduino pin number
 * @return value read
 */
static inline __attribute__((always_inline))
bool fastDigitalRead(uint8_t pin) {
  return *pinReg(pin) & pinMask(pin);
     990:	9f b1       	in	r25, 0x0f	; 15
fastBitWriteSafe():
/media/user/Data/Documents/AVR/AVR/libraries/DigitalIO/src/DigitalPin.h:115
    cli();
  }
  if (level) {
    *address |= mask;
  } else {
    *address &= ~mask;
     992:	89 98       	cbi	0x11, 1	; 17
/media/user/Data/Documents/AVR/AVR/libraries/DigitalIO/src/DigitalPin.h:112
  uint8_t s;
  if (address > reinterpret_cast<uint8_t*>(0X3F)) {
    s = SREG;
    cli();
  }
  if (level) {
     994:	83 ff       	sbrs	r24, 3
     996:	27 c0       	rjmp	.+78     	; 0x9e6 <RF24::write_register(unsigned char, unsigned char const*, unsigned char) [clone .constprop.21]+0x11a>
/media/user/Data/Documents/AVR/AVR/libraries/DigitalIO/src/DigitalPin.h:113
    *address |= mask;
     998:	8d 9a       	sbi	0x11, 5	; 17
     99a:	89 9a       	sbi	0x11, 1	; 17
fastDigitalRead():
/media/user/Data/Documents/AVR/AVR/libraries/DigitalIO/src/DigitalPin.h:128
 * @param[in] pin Arduino pin number
 * @return value read
 */
static inline __attribute__((always_inline))
bool fastDigitalRead(uint8_t pin) {
  return *pinReg(pin) & pinMask(pin);
     99c:	9f b1       	in	r25, 0x0f	; 15
fastBitWriteSafe():
/media/user/Data/Documents/AVR/AVR/libraries/DigitalIO/src/DigitalPin.h:115
    cli();
  }
  if (level) {
    *address |= mask;
  } else {
    *address &= ~mask;
     99e:	89 98       	cbi	0x11, 1	; 17
/media/user/Data/Documents/AVR/AVR/libraries/DigitalIO/src/DigitalPin.h:112
  uint8_t s;
  if (address > reinterpret_cast<uint8_t*>(0X3F)) {
    s = SREG;
    cli();
  }
  if (level) {
     9a0:	82 ff       	sbrs	r24, 2
     9a2:	23 c0       	rjmp	.+70     	; 0x9ea <RF24::write_register(unsigned char, unsigned char const*, unsigned char) [clone .constprop.21]+0x11e>
/media/user/Data/Documents/AVR/AVR/libraries/DigitalIO/src/DigitalPin.h:113
    *address |= mask;
     9a4:	8d 9a       	sbi	0x11, 5	; 17
     9a6:	89 9a       	sbi	0x11, 1	; 17
fastDigitalRead():
/media/user/Data/Documents/AVR/AVR/libraries/DigitalIO/src/DigitalPin.h:128
 * @param[in] pin Arduino pin number
 * @return value read
 */
static inline __attribute__((always_inline))
bool fastDigitalRead(uint8_t pin) {
  return *pinReg(pin) & pinMask(pin);
     9a8:	9f b1       	in	r25, 0x0f	; 15
fastBitWriteSafe():
/media/user/Data/Documents/AVR/AVR/libraries/DigitalIO/src/DigitalPin.h:115
    cli();
  }
  if (level) {
    *address |= mask;
  } else {
    *address &= ~mask;
     9aa:	89 98       	cbi	0x11, 1	; 17
/media/user/Data/Documents/AVR/AVR/libraries/DigitalIO/src/DigitalPin.h:112
  uint8_t s;
  if (address > reinterpret_cast<uint8_t*>(0X3F)) {
    s = SREG;
    cli();
  }
  if (level) {
     9ac:	81 ff       	sbrs	r24, 1
     9ae:	1f c0       	rjmp	.+62     	; 0x9ee <RF24::write_register(unsigned char, unsigned char const*, unsigned char) [clone .constprop.21]+0x122>
/media/user/Data/Documents/AVR/AVR/libraries/DigitalIO/src/DigitalPin.h:113
    *address |= mask;
     9b0:	8d 9a       	sbi	0x11, 5	; 17
     9b2:	89 9a       	sbi	0x11, 1	; 17
fastDigitalRead():
/media/user/Data/Documents/AVR/AVR/libraries/DigitalIO/src/DigitalPin.h:128
 * @param[in] pin Arduino pin number
 * @return value read
 */
static inline __attribute__((always_inline))
bool fastDigitalRead(uint8_t pin) {
  return *pinReg(pin) & pinMask(pin);
     9b4:	9f b1       	in	r25, 0x0f	; 15
fastBitWriteSafe():
/media/user/Data/Documents/AVR/AVR/libraries/DigitalIO/src/DigitalPin.h:115
    cli();
  }
  if (level) {
    *address |= mask;
  } else {
    *address &= ~mask;
     9b6:	89 98       	cbi	0x11, 1	; 17
/media/user/Data/Documents/AVR/AVR/libraries/DigitalIO/src/DigitalPin.h:112
  uint8_t s;
  if (address > reinterpret_cast<uint8_t*>(0X3F)) {
    s = SREG;
    cli();
  }
  if (level) {
     9b8:	80 ff       	sbrs	r24, 0
     9ba:	1b c0       	rjmp	.+54     	; 0x9f2 <RF24::write_register(unsigned char, unsigned char const*, unsigned char) [clone .constprop.21]+0x126>
/media/user/Data/Documents/AVR/AVR/libraries/DigitalIO/src/DigitalPin.h:113
    *address |= mask;
     9bc:	8d 9a       	sbi	0x11, 5	; 17
     9be:	89 9a       	sbi	0x11, 1	; 17
fastDigitalRead():
/media/user/Data/Documents/AVR/AVR/libraries/DigitalIO/src/DigitalPin.h:128
 * @param[in] pin Arduino pin number
 * @return value read
 */
static inline __attribute__((always_inline))
bool fastDigitalRead(uint8_t pin) {
  return *pinReg(pin) & pinMask(pin);
     9c0:	8f b1       	in	r24, 0x0f	; 15
fastBitWriteSafe():
/media/user/Data/Documents/AVR/AVR/libraries/DigitalIO/src/DigitalPin.h:115
    cli();
  }
  if (level) {
    *address |= mask;
  } else {
    *address &= ~mask;
     9c2:	89 98       	cbi	0x11, 1	; 17
     9c4:	c5 cf       	rjmp	.-118    	; 0x950 <RF24::write_register(unsigned char, unsigned char const*, unsigned char) [clone .constprop.21]+0x84>
write_register():
/media/user/Data/Documents/AVR/AVR/libraries/DigitalIO/src/SoftSPI.h:154
    fastDigitalWrite(SckPin,
      MODE_CPHA(Mode) ? MODE_CPOL(Mode) : !MODE_CPOL(Mode));
    if (fastDigitalRead(MisoPin)) *rxData |= 1 << bit;
     9c6:	c0 e8       	ldi	r28, 0x80	; 128
     9c8:	8f cf       	rjmp	.-226    	; 0x8e8 <RF24::write_register(unsigned char, unsigned char const*, unsigned char) [clone .constprop.21]+0x1c>
fastBitWriteSafe():
/media/user/Data/Documents/AVR/AVR/libraries/DigitalIO/src/DigitalPin.h:115
     9ca:	8d 98       	cbi	0x11, 5	; 17
     9cc:	a3 cf       	rjmp	.-186    	; 0x914 <RF24::write_register(unsigned char, unsigned char const*, unsigned char) [clone .constprop.21]+0x48>
     9ce:	8d 98       	cbi	0x11, 5	; 17
     9d0:	a8 cf       	rjmp	.-176    	; 0x922 <RF24::write_register(unsigned char, unsigned char const*, unsigned char) [clone .constprop.21]+0x56>
     9d2:	8d 98       	cbi	0x11, 5	; 17
     9d4:	b2 cf       	rjmp	.-156    	; 0x93a <RF24::write_register(unsigned char, unsigned char const*, unsigned char) [clone .constprop.21]+0x6e>
     9d6:	8d 98       	cbi	0x11, 5	; 17
     9d8:	c8 cf       	rjmp	.-112    	; 0x96a <RF24::write_register(unsigned char, unsigned char const*, unsigned char) [clone .constprop.21]+0x9e>
     9da:	8d 98       	cbi	0x11, 5	; 17
     9dc:	cc cf       	rjmp	.-104    	; 0x976 <RF24::write_register(unsigned char, unsigned char const*, unsigned char) [clone .constprop.21]+0xaa>
     9de:	8d 98       	cbi	0x11, 5	; 17
     9e0:	d0 cf       	rjmp	.-96     	; 0x982 <RF24::write_register(unsigned char, unsigned char const*, unsigned char) [clone .constprop.21]+0xb6>
     9e2:	8d 98       	cbi	0x11, 5	; 17
     9e4:	d4 cf       	rjmp	.-88     	; 0x98e <RF24::write_register(unsigned char, unsigned char const*, unsigned char) [clone .constprop.21]+0xc2>
     9e6:	8d 98       	cbi	0x11, 5	; 17
     9e8:	d8 cf       	rjmp	.-80     	; 0x99a <RF24::write_register(unsigned char, unsigned char const*, unsigned char) [clone .constprop.21]+0xce>
     9ea:	8d 98       	cbi	0x11, 5	; 17
     9ec:	dc cf       	rjmp	.-72     	; 0x9a6 <RF24::write_register(unsigned char, unsigned char const*, unsigned char) [clone .constprop.21]+0xda>
     9ee:	8d 98       	cbi	0x11, 5	; 17
     9f0:	e0 cf       	rjmp	.-64     	; 0x9b2 <RF24::write_register(unsigned char, unsigned char const*, unsigned char) [clone .constprop.21]+0xe6>
     9f2:	8d 98       	cbi	0x11, 5	; 17
     9f4:	e4 cf       	rjmp	.-56     	; 0x9be <RF24::write_register(unsigned char, unsigned char const*, unsigned char) [clone .constprop.21]+0xf2>
write_register():
/media/user/Data/Documents/AVR/AVR/libraries/RF24/RF24.cpp:178
  endTransaction();
     9f6:	0e 94 69 03 	call	0x6d2	; 0x6d2 <RF24::endTransaction() [clone .constprop.39]>
/media/user/Data/Documents/AVR/AVR/libraries/RF24/RF24.cpp:183

  #endif

  return status;
}
     9fa:	8c 2f       	mov	r24, r28
     9fc:	df 91       	pop	r29
     9fe:	cf 91       	pop	r28
     a00:	08 95       	ret

00000a02 <RF24::read_register(unsigned char) [clone .constprop.18]>:
read_register():
/media/user/Data/Documents/AVR/AVR/libraries/RF24/RF24.cpp:124
  return status;
}

/****************************************************************************/

uint8_t RF24::read_register(uint8_t reg)
     a02:	cf 93       	push	r28
     a04:	df 93       	push	r29
     a06:	c8 2f       	mov	r28, r24
/media/user/Data/Documents/AVR/AVR/libraries/RF24/RF24.cpp:143
  result = *++prx;   // result is 2nd byte of receive buffer
  
  endTransaction();
  #else

  beginTransaction();
     a08:	0e 94 6e 03 	call	0x6dc	; 0x6dc <RF24::beginTransaction() [clone .constprop.38]>
_ZN7SoftSPIILh6ELh3ELh7ELh0EE11transferBitEhPhh():
/media/user/Data/Documents/AVR/AVR/libraries/DigitalIO/src/SoftSPI.h:151
  inline __attribute__((always_inline))
  void transferBit(uint8_t bit, uint8_t* rxData, uint8_t txData) {
    if (MODE_CPHA(Mode)) {
      fastDigitalWrite(SckPin, !MODE_CPOL(Mode));
    }
    fastDigitalWrite(MosiPin, txData & (1 << bit));
     a0c:	d0 e0       	ldi	r29, 0x00	; 0
fastBitWriteSafe():
/media/user/Data/Documents/AVR/AVR/libraries/DigitalIO/src/DigitalPin.h:115
     a0e:	8d 98       	cbi	0x11, 5	; 17
/media/user/Data/Documents/AVR/AVR/libraries/DigitalIO/src/DigitalPin.h:113
  if (address > reinterpret_cast<uint8_t*>(0X3F)) {
    s = SREG;
    cli();
  }
  if (level) {
    *address |= mask;
     a10:	89 9a       	sbi	0x11, 1	; 17
fastDigitalRead():
/media/user/Data/Documents/AVR/AVR/libraries/DigitalIO/src/DigitalPin.h:128
 * @param[in] pin Arduino pin number
 * @return value read
 */
static inline __attribute__((always_inline))
bool fastDigitalRead(uint8_t pin) {
  return *pinReg(pin) & pinMask(pin);
     a12:	2f b1       	in	r18, 0x0f	; 15
fastBitWriteSafe():
/media/user/Data/Documents/AVR/AVR/libraries/DigitalIO/src/DigitalPin.h:115
    cli();
  }
  if (level) {
    *address |= mask;
  } else {
    *address &= ~mask;
     a14:	89 98       	cbi	0x11, 1	; 17
     a16:	8d 98       	cbi	0x11, 5	; 17
/media/user/Data/Documents/AVR/AVR/libraries/DigitalIO/src/DigitalPin.h:113
  if (address > reinterpret_cast<uint8_t*>(0X3F)) {
    s = SREG;
    cli();
  }
  if (level) {
    *address |= mask;
     a18:	89 9a       	sbi	0x11, 1	; 17
fastDigitalRead():
/media/user/Data/Documents/AVR/AVR/libraries/DigitalIO/src/DigitalPin.h:128
 * @param[in] pin Arduino pin number
 * @return value read
 */
static inline __attribute__((always_inline))
bool fastDigitalRead(uint8_t pin) {
  return *pinReg(pin) & pinMask(pin);
     a1a:	2f b1       	in	r18, 0x0f	; 15
fastBitWriteSafe():
/media/user/Data/Documents/AVR/AVR/libraries/DigitalIO/src/DigitalPin.h:115
    cli();
  }
  if (level) {
    *address |= mask;
  } else {
    *address &= ~mask;
     a1c:	89 98       	cbi	0x11, 1	; 17
     a1e:	8d 98       	cbi	0x11, 5	; 17
/media/user/Data/Documents/AVR/AVR/libraries/DigitalIO/src/DigitalPin.h:113
  if (address > reinterpret_cast<uint8_t*>(0X3F)) {
    s = SREG;
    cli();
  }
  if (level) {
    *address |= mask;
     a20:	89 9a       	sbi	0x11, 1	; 17
fastDigitalRead():
/media/user/Data/Documents/AVR/AVR/libraries/DigitalIO/src/DigitalPin.h:128
 * @param[in] pin Arduino pin number
 * @return value read
 */
static inline __attribute__((always_inline))
bool fastDigitalRead(uint8_t pin) {
  return *pinReg(pin) & pinMask(pin);
     a22:	2f b1       	in	r18, 0x0f	; 15
fastBitWriteSafe():
/media/user/Data/Documents/AVR/AVR/libraries/DigitalIO/src/DigitalPin.h:115
    cli();
  }
  if (level) {
    *address |= mask;
  } else {
    *address &= ~mask;
     a24:	89 98       	cbi	0x11, 1	; 17
     a26:	8d 98       	cbi	0x11, 5	; 17
/media/user/Data/Documents/AVR/AVR/libraries/DigitalIO/src/DigitalPin.h:113
  if (address > reinterpret_cast<uint8_t*>(0X3F)) {
    s = SREG;
    cli();
  }
  if (level) {
    *address |= mask;
     a28:	89 9a       	sbi	0x11, 1	; 17
fastDigitalRead():
/media/user/Data/Documents/AVR/AVR/libraries/DigitalIO/src/DigitalPin.h:128
 * @param[in] pin Arduino pin number
 * @return value read
 */
static inline __attribute__((always_inline))
bool fastDigitalRead(uint8_t pin) {
  return *pinReg(pin) & pinMask(pin);
     a2a:	2f b1       	in	r18, 0x0f	; 15
fastBitWriteSafe():
/media/user/Data/Documents/AVR/AVR/libraries/DigitalIO/src/DigitalPin.h:115
    cli();
  }
  if (level) {
    *address |= mask;
  } else {
    *address &= ~mask;
     a2c:	89 98       	cbi	0x11, 1	; 17
     a2e:	8d 98       	cbi	0x11, 5	; 17
/media/user/Data/Documents/AVR/AVR/libraries/DigitalIO/src/DigitalPin.h:113
  if (address > reinterpret_cast<uint8_t*>(0X3F)) {
    s = SREG;
    cli();
  }
  if (level) {
    *address |= mask;
     a30:	89 9a       	sbi	0x11, 1	; 17
fastDigitalRead():
/media/user/Data/Documents/AVR/AVR/libraries/DigitalIO/src/DigitalPin.h:128
 * @param[in] pin Arduino pin number
 * @return value read
 */
static inline __attribute__((always_inline))
bool fastDigitalRead(uint8_t pin) {
  return *pinReg(pin) & pinMask(pin);
     a32:	2f b1       	in	r18, 0x0f	; 15
fastBitWriteSafe():
/media/user/Data/Documents/AVR/AVR/libraries/DigitalIO/src/DigitalPin.h:115
    cli();
  }
  if (level) {
    *address |= mask;
  } else {
    *address &= ~mask;
     a34:	89 98       	cbi	0x11, 1	; 17
_ZN7SoftSPIILh6ELh3ELh7ELh0EE11transferBitEhPhh():
/media/user/Data/Documents/AVR/AVR/libraries/DigitalIO/src/SoftSPI.h:151
     a36:	9e 01       	movw	r18, r28
     a38:	35 95       	asr	r19
     a3a:	27 95       	ror	r18
     a3c:	35 95       	asr	r19
     a3e:	27 95       	ror	r18
fastBitWriteSafe():
/media/user/Data/Documents/AVR/AVR/libraries/DigitalIO/src/DigitalPin.h:112
  uint8_t s;
  if (address > reinterpret_cast<uint8_t*>(0X3F)) {
    s = SREG;
    cli();
  }
  if (level) {
     a40:	23 2b       	or	r18, r19
     a42:	09 f4       	brne	.+2      	; 0xa46 <RF24::read_register(unsigned char) [clone .constprop.18]+0x44>
     a44:	3d c0       	rjmp	.+122    	; 0xac0 <RF24::read_register(unsigned char) [clone .constprop.18]+0xbe>
/media/user/Data/Documents/AVR/AVR/libraries/DigitalIO/src/DigitalPin.h:113
    *address |= mask;
     a46:	8d 9a       	sbi	0x11, 5	; 17
     a48:	89 9a       	sbi	0x11, 1	; 17
fastDigitalRead():
/media/user/Data/Documents/AVR/AVR/libraries/DigitalIO/src/DigitalPin.h:128
 * @param[in] pin Arduino pin number
 * @return value read
 */
static inline __attribute__((always_inline))
bool fastDigitalRead(uint8_t pin) {
  return *pinReg(pin) & pinMask(pin);
     a4a:	9f b1       	in	r25, 0x0f	; 15
fastBitWriteSafe():
/media/user/Data/Documents/AVR/AVR/libraries/DigitalIO/src/DigitalPin.h:115
    cli();
  }
  if (level) {
    *address |= mask;
  } else {
    *address &= ~mask;
     a4c:	89 98       	cbi	0x11, 1	; 17
/media/user/Data/Documents/AVR/AVR/libraries/DigitalIO/src/DigitalPin.h:112
  uint8_t s;
  if (address > reinterpret_cast<uint8_t*>(0X3F)) {
    s = SREG;
    cli();
  }
  if (level) {
     a4e:	c1 ff       	sbrs	r28, 1
     a50:	39 c0       	rjmp	.+114    	; 0xac4 <RF24::read_register(unsigned char) [clone .constprop.18]+0xc2>
/media/user/Data/Documents/AVR/AVR/libraries/DigitalIO/src/DigitalPin.h:113
    *address |= mask;
     a52:	8d 9a       	sbi	0x11, 5	; 17
     a54:	89 9a       	sbi	0x11, 1	; 17
fastDigitalRead():
/media/user/Data/Documents/AVR/AVR/libraries/DigitalIO/src/DigitalPin.h:128
 * @param[in] pin Arduino pin number
 * @return value read
 */
static inline __attribute__((always_inline))
bool fastDigitalRead(uint8_t pin) {
  return *pinReg(pin) & pinMask(pin);
     a56:	8f b1       	in	r24, 0x0f	; 15
fastBitWriteSafe():
/media/user/Data/Documents/AVR/AVR/libraries/DigitalIO/src/DigitalPin.h:115
    cli();
  }
  if (level) {
    *address |= mask;
  } else {
    *address &= ~mask;
     a58:	89 98       	cbi	0x11, 1	; 17
     a5a:	8d 98       	cbi	0x11, 5	; 17
/media/user/Data/Documents/AVR/AVR/libraries/DigitalIO/src/DigitalPin.h:113
  if (address > reinterpret_cast<uint8_t*>(0X3F)) {
    s = SREG;
    cli();
  }
  if (level) {
    *address |= mask;
     a5c:	89 9a       	sbi	0x11, 1	; 17
fastDigitalRead():
/media/user/Data/Documents/AVR/AVR/libraries/DigitalIO/src/DigitalPin.h:128
 * @param[in] pin Arduino pin number
 * @return value read
 */
static inline __attribute__((always_inline))
bool fastDigitalRead(uint8_t pin) {
  return *pinReg(pin) & pinMask(pin);
     a5e:	8f b1       	in	r24, 0x0f	; 15
fastBitWriteSafe():
/media/user/Data/Documents/AVR/AVR/libraries/DigitalIO/src/DigitalPin.h:115
    cli();
  }
  if (level) {
    *address |= mask;
  } else {
    *address &= ~mask;
     a60:	89 98       	cbi	0x11, 1	; 17
/media/user/Data/Documents/AVR/AVR/libraries/DigitalIO/src/DigitalPin.h:113
  if (address > reinterpret_cast<uint8_t*>(0X3F)) {
    s = SREG;
    cli();
  }
  if (level) {
    *address |= mask;
     a62:	8d 9a       	sbi	0x11, 5	; 17
     a64:	89 9a       	sbi	0x11, 1	; 17
_ZN7SoftSPIILh6ELh3ELh7ELh0EE11transferBitEhPhh():
/media/user/Data/Documents/AVR/AVR/libraries/DigitalIO/src/SoftSPI.h:154
    fastDigitalWrite(SckPin,
      MODE_CPHA(Mode) ? MODE_CPOL(Mode) : !MODE_CPOL(Mode));
    if (fastDigitalRead(MisoPin)) *rxData |= 1 << bit;
     a66:	7a 9b       	sbis	0x0f, 2	; 15
     a68:	2f c0       	rjmp	.+94     	; 0xac8 <RF24::read_register(unsigned char) [clone .constprop.18]+0xc6>
read_register():
     a6a:	c0 e8       	ldi	r28, 0x80	; 128
fastBitWriteSafe():
/media/user/Data/Documents/AVR/AVR/libraries/DigitalIO/src/DigitalPin.h:115
  } else {
    *address &= ~mask;
     a6c:	89 98       	cbi	0x11, 1	; 17
/media/user/Data/Documents/AVR/AVR/libraries/DigitalIO/src/DigitalPin.h:113
  if (address > reinterpret_cast<uint8_t*>(0X3F)) {
    s = SREG;
    cli();
  }
  if (level) {
    *address |= mask;
     a6e:	8d 9a       	sbi	0x11, 5	; 17
     a70:	89 9a       	sbi	0x11, 1	; 17
_ZN7SoftSPIILh6ELh3ELh7ELh0EE11transferBitEhPhh():
/media/user/Data/Documents/AVR/AVR/libraries/DigitalIO/src/SoftSPI.h:154
     a72:	7a 99       	sbic	0x0f, 2	; 15
     a74:	c0 64       	ori	r28, 0x40	; 64
fastBitWriteSafe():
/media/user/Data/Documents/AVR/AVR/libraries/DigitalIO/src/DigitalPin.h:115
  } else {
    *address &= ~mask;
     a76:	89 98       	cbi	0x11, 1	; 17
/media/user/Data/Documents/AVR/AVR/libraries/DigitalIO/src/DigitalPin.h:113
  if (address > reinterpret_cast<uint8_t*>(0X3F)) {
    s = SREG;
    cli();
  }
  if (level) {
    *address |= mask;
     a78:	8d 9a       	sbi	0x11, 5	; 17
     a7a:	89 9a       	sbi	0x11, 1	; 17
_ZN7SoftSPIILh6ELh3ELh7ELh0EE11transferBitEhPhh():
/media/user/Data/Documents/AVR/AVR/libraries/DigitalIO/src/SoftSPI.h:154
     a7c:	7a 99       	sbic	0x0f, 2	; 15
     a7e:	c0 62       	ori	r28, 0x20	; 32
fastBitWriteSafe():
/media/user/Data/Documents/AVR/AVR/libraries/DigitalIO/src/DigitalPin.h:115
  } else {
    *address &= ~mask;
     a80:	89 98       	cbi	0x11, 1	; 17
/media/user/Data/Documents/AVR/AVR/libraries/DigitalIO/src/DigitalPin.h:113
  if (address > reinterpret_cast<uint8_t*>(0X3F)) {
    s = SREG;
    cli();
  }
  if (level) {
    *address |= mask;
     a82:	8d 9a       	sbi	0x11, 5	; 17
     a84:	89 9a       	sbi	0x11, 1	; 17
_ZN7SoftSPIILh6ELh3ELh7ELh0EE11transferBitEhPhh():
/media/user/Data/Documents/AVR/AVR/libraries/DigitalIO/src/SoftSPI.h:154
     a86:	7a 99       	sbic	0x0f, 2	; 15
     a88:	c0 61       	ori	r28, 0x10	; 16
fastBitWriteSafe():
/media/user/Data/Documents/AVR/AVR/libraries/DigitalIO/src/DigitalPin.h:115
  } else {
    *address &= ~mask;
     a8a:	89 98       	cbi	0x11, 1	; 17
/media/user/Data/Documents/AVR/AVR/libraries/DigitalIO/src/DigitalPin.h:113
  if (address > reinterpret_cast<uint8_t*>(0X3F)) {
    s = SREG;
    cli();
  }
  if (level) {
    *address |= mask;
     a8c:	8d 9a       	sbi	0x11, 5	; 17
     a8e:	89 9a       	sbi	0x11, 1	; 17
_ZN7SoftSPIILh6ELh3ELh7ELh0EE11transferBitEhPhh():
/media/user/Data/Documents/AVR/AVR/libraries/DigitalIO/src/SoftSPI.h:154
     a90:	7a 99       	sbic	0x0f, 2	; 15
     a92:	c8 60       	ori	r28, 0x08	; 8
fastBitWriteSafe():
/media/user/Data/Documents/AVR/AVR/libraries/DigitalIO/src/DigitalPin.h:115
  } else {
    *address &= ~mask;
     a94:	89 98       	cbi	0x11, 1	; 17
/media/user/Data/Documents/AVR/AVR/libraries/DigitalIO/src/DigitalPin.h:113
  if (address > reinterpret_cast<uint8_t*>(0X3F)) {
    s = SREG;
    cli();
  }
  if (level) {
    *address |= mask;
     a96:	8d 9a       	sbi	0x11, 5	; 17
     a98:	89 9a       	sbi	0x11, 1	; 17
_ZN7SoftSPIILh6ELh3ELh7ELh0EE11transferBitEhPhh():
/media/user/Data/Documents/AVR/AVR/libraries/DigitalIO/src/SoftSPI.h:154
     a9a:	7a 99       	sbic	0x0f, 2	; 15
     a9c:	c4 60       	ori	r28, 0x04	; 4
fastBitWriteSafe():
/media/user/Data/Documents/AVR/AVR/libraries/DigitalIO/src/DigitalPin.h:115
  } else {
    *address &= ~mask;
     a9e:	89 98       	cbi	0x11, 1	; 17
/media/user/Data/Documents/AVR/AVR/libraries/DigitalIO/src/DigitalPin.h:113
  if (address > reinterpret_cast<uint8_t*>(0X3F)) {
    s = SREG;
    cli();
  }
  if (level) {
    *address |= mask;
     aa0:	8d 9a       	sbi	0x11, 5	; 17
     aa2:	89 9a       	sbi	0x11, 1	; 17
_ZN7SoftSPIILh6ELh3ELh7ELh0EE11transferBitEhPhh():
/media/user/Data/Documents/AVR/AVR/libraries/DigitalIO/src/SoftSPI.h:154
     aa4:	7a 99       	sbic	0x0f, 2	; 15
     aa6:	c2 60       	ori	r28, 0x02	; 2
fastBitWriteSafe():
/media/user/Data/Documents/AVR/AVR/libraries/DigitalIO/src/DigitalPin.h:115
  } else {
    *address &= ~mask;
     aa8:	89 98       	cbi	0x11, 1	; 17
/media/user/Data/Documents/AVR/AVR/libraries/DigitalIO/src/DigitalPin.h:113
  if (address > reinterpret_cast<uint8_t*>(0X3F)) {
    s = SREG;
    cli();
  }
  if (level) {
    *address |= mask;
     aaa:	8d 9a       	sbi	0x11, 5	; 17
     aac:	89 9a       	sbi	0x11, 1	; 17
_ZN7SoftSPIILh6ELh3ELh7ELh0EE11transferBitEhPhh():
/media/user/Data/Documents/AVR/AVR/libraries/DigitalIO/src/SoftSPI.h:154
     aae:	7a 99       	sbic	0x0f, 2	; 15
     ab0:	c1 60       	ori	r28, 0x01	; 1
fastBitWriteSafe():
/media/user/Data/Documents/AVR/AVR/libraries/DigitalIO/src/DigitalPin.h:115
  } else {
    *address &= ~mask;
     ab2:	89 98       	cbi	0x11, 1	; 17
read_register():
/media/user/Data/Documents/AVR/AVR/libraries/RF24/RF24.cpp:146
  _SPI.transfer( R_REGISTER | ( REGISTER_MASK & reg ) );
  result = _SPI.transfer(0xff);
  endTransaction();
     ab4:	0e 94 69 03 	call	0x6d2	; 0x6d2 <RF24::endTransaction() [clone .constprop.39]>
/media/user/Data/Documents/AVR/AVR/libraries/RF24/RF24.cpp:151

  #endif

  return result;
}
     ab8:	8c 2f       	mov	r24, r28
     aba:	df 91       	pop	r29
     abc:	cf 91       	pop	r28
     abe:	08 95       	ret
fastBitWriteSafe():
/media/user/Data/Documents/AVR/AVR/libraries/DigitalIO/src/DigitalPin.h:115
     ac0:	8d 98       	cbi	0x11, 5	; 17
     ac2:	c2 cf       	rjmp	.-124    	; 0xa48 <RF24::read_register(unsigned char) [clone .constprop.18]+0x46>
     ac4:	8d 98       	cbi	0x11, 5	; 17
     ac6:	c6 cf       	rjmp	.-116    	; 0xa54 <RF24::read_register(unsigned char) [clone .constprop.18]+0x52>
read_register():
/media/user/Data/Documents/AVR/AVR/libraries/DigitalIO/src/SoftSPI.h:98
   * @param[in] txData Data byte to send.
   * @return Data byte received.
   */
  inline __attribute__((always_inline))
  uint8_t transfer(uint8_t txData) {
    uint8_t rxData = 0;
     ac8:	c0 e0       	ldi	r28, 0x00	; 0
     aca:	d0 cf       	rjmp	.-96     	; 0xa6c <RF24::read_register(unsigned char) [clone .constprop.18]+0x6a>

00000acc <RF24::setDataRate(rf24_datarate_e) [clone .constprop.17]>:
setDataRate():
/media/user/Data/Documents/AVR/AVR/libraries/RF24/RF24.cpp:1404
  return (read_register(RF_SETUP) & (_BV(RF_PWR_LOW) | _BV(RF_PWR_HIGH))) >> 1 ;
}

/****************************************************************************/

bool RF24::setDataRate(rf24_datarate_e speed)
     acc:	0f 93       	push	r16
     ace:	1f 93       	push	r17
     ad0:	cf 93       	push	r28
     ad2:	8c 01       	movw	r16, r24
/media/user/Data/Documents/AVR/AVR/libraries/RF24/RF24.cpp:1407
{
  bool result = false;
  uint8_t setup = read_register(RF_SETUP) ;
     ad4:	86 e0       	ldi	r24, 0x06	; 6
     ad6:	0e 94 01 05 	call	0xa02	; 0xa02 <RF24::read_register(unsigned char) [clone .constprop.18]>
/media/user/Data/Documents/AVR/AVR/libraries/RF24/RF24.cpp:1410

  // HIGH and LOW '00' is 1Mbs - our default
  setup &= ~(_BV(RF_DR_LOW) | _BV(RF_DR_HIGH)) ;
     ada:	c8 2f       	mov	r28, r24
     adc:	c7 7d       	andi	r28, 0xD7	; 215
/media/user/Data/Documents/AVR/AVR/libraries/RF24/RF24.cpp:1415
  
  #if defined(__arm__) || defined (RF24_LINUX) || defined (__ARDUINO_X86__)
    txRxDelay=250;
  #else //16Mhz Arduino
    txRxDelay=85;
     ade:	85 e5       	ldi	r24, 0x55	; 85
     ae0:	90 e0       	ldi	r25, 0x00	; 0
     ae2:	a0 e0       	ldi	r26, 0x00	; 0
     ae4:	b0 e0       	ldi	r27, 0x00	; 0
/media/user/Data/Documents/AVR/AVR/libraries/RF24/RF24.cpp:1417
  #endif
  if( speed == RF24_250KBPS )
     ae6:	02 30       	cpi	r16, 0x02	; 2
     ae8:	11 05       	cpc	r17, r1
     aea:	29 f4       	brne	.+10     	; 0xaf6 <RF24::setDataRate(rf24_datarate_e) [clone .constprop.17]+0x2a>
/media/user/Data/Documents/AVR/AVR/libraries/RF24/RF24.cpp:1421
  {
    // Must set the RF_DR_LOW to 1; RF_DR_HIGH (used to be RF_DR) is already 0
    // Making it '10'.
    setup |= _BV( RF_DR_LOW ) ;
     aec:	c0 62       	ori	r28, 0x20	; 32
/media/user/Data/Documents/AVR/AVR/libraries/RF24/RF24.cpp:1425
  #if defined(__arm__) || defined (RF24_LINUX) || defined (__ARDUINO_X86__)
    txRxDelay=450;
  #else //16Mhz Arduino
	txRxDelay=155;
     aee:	8b e9       	ldi	r24, 0x9B	; 155
     af0:	90 e0       	ldi	r25, 0x00	; 0
     af2:	a0 e0       	ldi	r26, 0x00	; 0
     af4:	b0 e0       	ldi	r27, 0x00	; 0
     af6:	80 93 ed 01 	sts	0x01ED, r24	; 0x8001ed <radio+0xe>
     afa:	90 93 ee 01 	sts	0x01EE, r25	; 0x8001ee <radio+0xf>
     afe:	a0 93 ef 01 	sts	0x01EF, r26	; 0x8001ef <radio+0x10>
     b02:	b0 93 f0 01 	sts	0x01F0, r27	; 0x8001f0 <radio+0x11>
/media/user/Data/Documents/AVR/AVR/libraries/RF24/RF24.cpp:1442
      #else //16Mhz Arduino	  
	  txRxDelay=65;
	  #endif
    }
  }
  write_register(RF_SETUP,setup);
     b06:	6c 2f       	mov	r22, r28
     b08:	86 e0       	ldi	r24, 0x06	; 6
     b0a:	0e 94 c6 03 	call	0x78c	; 0x78c <RF24::write_register(unsigned char, unsigned char) [clone .constprop.35]>
/media/user/Data/Documents/AVR/AVR/libraries/RF24/RF24.cpp:1445

  // Verify our result
  if ( read_register(RF_SETUP) == setup )
     b0e:	86 e0       	ldi	r24, 0x06	; 6
     b10:	0e 94 01 05 	call	0xa02	; 0xa02 <RF24::read_register(unsigned char) [clone .constprop.18]>
     b14:	91 e0       	ldi	r25, 0x01	; 1
     b16:	c8 13       	cpse	r28, r24
     b18:	90 e0       	ldi	r25, 0x00	; 0
/media/user/Data/Documents/AVR/AVR/libraries/RF24/RF24.cpp:1450
  {
    result = true;
  }
  return result;
}
     b1a:	89 2f       	mov	r24, r25
     b1c:	cf 91       	pop	r28
     b1e:	1f 91       	pop	r17
     b20:	0f 91       	pop	r16
     b22:	08 95       	ret

00000b24 <Print::write(char const*) [clone .part.2] [clone .constprop.26]>:
_ZN5Print5writeEPKc.part.2():
/home/user/.arduino15/packages/ATTinyCore/hardware/avr/1.5.2/cores/tinymodern/Print.h:51
    void clearWriteError() { setWriteError(0); }

    virtual size_t write(uint8_t) = 0;
    size_t write(const char *str) {
      if (str == NULL) return 0;
      return write((const uint8_t *)str, strlen(str));
     b24:	fc 01       	movw	r30, r24
     b26:	01 90       	ld	r0, Z+
     b28:	00 20       	and	r0, r0
     b2a:	e9 f7       	brne	.-6      	; 0xb26 <Print::write(char const*) [clone .part.2] [clone .constprop.26]+0x2>
     b2c:	31 97       	sbiw	r30, 0x01	; 1
     b2e:	af 01       	movw	r20, r30
     b30:	48 1b       	sub	r20, r24
     b32:	59 0b       	sbc	r21, r25
     b34:	bc 01       	movw	r22, r24
     b36:	88 e7       	ldi	r24, 0x78	; 120
     b38:	91 e0       	ldi	r25, 0x01	; 1
     b3a:	0c 94 bb 00 	jmp	0x176	; 0x176 <Print::write(unsigned char const*, unsigned int)>

00000b3e <Print::println(char const*) [clone .constprop.24]>:
println():
/home/user/.arduino15/packages/ATTinyCore/hardware/avr/1.5.2/cores/tinymodern/Print.cpp:137
  size_t n = print(s);
  n += println();
  return n;
}

size_t Print::println(const char c[])
     b3e:	cf 93       	push	r28
     b40:	df 93       	push	r29
write():
     b42:	0e 94 92 05 	call	0xb24	; 0xb24 <Print::write(char const*) [clone .part.2] [clone .constprop.26]>
     b46:	ec 01       	movw	r28, r24
println():
/home/user/.arduino15/packages/ATTinyCore/hardware/avr/1.5.2/cores/tinymodern/Print.cpp:140
{
  size_t n = print(c);
  n += println();
     b48:	0e 94 8b 01 	call	0x316	; 0x316 <Print::println() [clone .constprop.27]>
/home/user/.arduino15/packages/ATTinyCore/hardware/avr/1.5.2/cores/tinymodern/Print.cpp:142
  return n;
}
     b4c:	8c 0f       	add	r24, r28
     b4e:	9d 1f       	adc	r25, r29
     b50:	df 91       	pop	r29
     b52:	cf 91       	pop	r28
     b54:	08 95       	ret

00000b56 <__vector_17>:
__vector_17():
/home/user/.arduino15/packages/ATTinyCore/hardware/avr/1.5.2/cores/tinymodern/HardwareSerial0.cpp:63
#elif defined(USART_UDRE_vect)
ISR(USART_UDRE_vect)
#else
  #error "Don't know what the Data Register Empty vector is called for Serial"
#endif
{
     b56:	1f 92       	push	r1
     b58:	0f 92       	push	r0
     b5a:	0f b6       	in	r0, 0x3f	; 63
     b5c:	0f 92       	push	r0
     b5e:	11 24       	eor	r1, r1
     b60:	2f 93       	push	r18
     b62:	3f 93       	push	r19
     b64:	4f 93       	push	r20
     b66:	5f 93       	push	r21
     b68:	6f 93       	push	r22
     b6a:	7f 93       	push	r23
     b6c:	8f 93       	push	r24
     b6e:	9f 93       	push	r25
     b70:	af 93       	push	r26
     b72:	bf 93       	push	r27
     b74:	ef 93       	push	r30
     b76:	ff 93       	push	r31
/home/user/.arduino15/packages/ATTinyCore/hardware/avr/1.5.2/cores/tinymodern/HardwareSerial0.cpp:64
  Serial._tx_udr_empty_irq();
     b78:	88 e7       	ldi	r24, 0x78	; 120
     b7a:	91 e0       	ldi	r25, 0x01	; 1
     b7c:	0e 94 1f 01 	call	0x23e	; 0x23e <HardwareSerial::_tx_udr_empty_irq()>
/home/user/.arduino15/packages/ATTinyCore/hardware/avr/1.5.2/cores/tinymodern/HardwareSerial0.cpp:65
}
     b80:	ff 91       	pop	r31
     b82:	ef 91       	pop	r30
     b84:	bf 91       	pop	r27
     b86:	af 91       	pop	r26
     b88:	9f 91       	pop	r25
     b8a:	8f 91       	pop	r24
     b8c:	7f 91       	pop	r23
     b8e:	6f 91       	pop	r22
     b90:	5f 91       	pop	r21
     b92:	4f 91       	pop	r20
     b94:	3f 91       	pop	r19
     b96:	2f 91       	pop	r18
     b98:	0f 90       	pop	r0
     b9a:	0f be       	out	0x3f, r0	; 63
     b9c:	0f 90       	pop	r0
     b9e:	1f 90       	pop	r1
     ba0:	18 95       	reti

00000ba2 <__vector_16>:
__vector_16():
/home/user/.arduino15/packages/ATTinyCore/hardware/avr/1.5.2/cores/tinymodern/HardwareSerial0.cpp:48
#elif defined(USART_RXC_vect)
  ISR(USART_RXC_vect) // ATmega8
#else
  #error "Don't know what the Data Received vector is called for Serial"
#endif
  {
     ba2:	1f 92       	push	r1
     ba4:	0f 92       	push	r0
     ba6:	0f b6       	in	r0, 0x3f	; 63
     ba8:	0f 92       	push	r0
     baa:	11 24       	eor	r1, r1
     bac:	2f 93       	push	r18
     bae:	8f 93       	push	r24
     bb0:	9f 93       	push	r25
     bb2:	ef 93       	push	r30
     bb4:	ff 93       	push	r31
_rx_complete_irq():
/home/user/.arduino15/packages/ATTinyCore/hardware/avr/1.5.2/cores/tinymodern/HardwareSerial_private.h:103

// Actual interrupt handlers //////////////////////////////////////////////////////////////

void HardwareSerial::_rx_complete_irq(void)
{
  if (bit_is_clear(*_ucsra, UPE0)) {
     bb6:	e0 91 88 01 	lds	r30, 0x0188	; 0x800188 <Serial+0x10>
     bba:	f0 91 89 01 	lds	r31, 0x0189	; 0x800189 <Serial+0x11>
     bbe:	80 81       	ld	r24, Z
     bc0:	e0 91 8e 01 	lds	r30, 0x018E	; 0x80018e <Serial+0x16>
     bc4:	f0 91 8f 01 	lds	r31, 0x018F	; 0x80018f <Serial+0x17>
     bc8:	82 fd       	sbrc	r24, 2
     bca:	1b c0       	rjmp	.+54     	; 0xc02 <__vector_16+0x60>
/home/user/.arduino15/packages/ATTinyCore/hardware/avr/1.5.2/cores/tinymodern/HardwareSerial_private.h:106
    // No Parity error, read byte and store it in the buffer if there is
    // room
    unsigned char c = *_udr;
     bcc:	90 81       	ld	r25, Z
/home/user/.arduino15/packages/ATTinyCore/hardware/avr/1.5.2/cores/tinymodern/HardwareSerial_private.h:107
    rx_buffer_index_t i = (unsigned int)(_rx_buffer_head + 1) % SERIAL_RX_BUFFER_SIZE;
     bce:	80 91 91 01 	lds	r24, 0x0191	; 0x800191 <Serial+0x19>
     bd2:	8f 5f       	subi	r24, 0xFF	; 255
     bd4:	8f 71       	andi	r24, 0x1F	; 31
/home/user/.arduino15/packages/ATTinyCore/hardware/avr/1.5.2/cores/tinymodern/HardwareSerial_private.h:113

    // if we should be storing the received character into the location
    // just before the tail (meaning that the head would advance to the
    // current location of the tail), we're about to overflow the buffer
    // and so we don't write the character or advance the head.
    if (i != _rx_buffer_tail) {
     bd6:	20 91 92 01 	lds	r18, 0x0192	; 0x800192 <Serial+0x1a>
     bda:	82 17       	cp	r24, r18
     bdc:	41 f0       	breq	.+16     	; 0xbee <__vector_16+0x4c>
/home/user/.arduino15/packages/ATTinyCore/hardware/avr/1.5.2/cores/tinymodern/HardwareSerial_private.h:114
      _rx_buffer[_rx_buffer_head] = c;
     bde:	e0 91 91 01 	lds	r30, 0x0191	; 0x800191 <Serial+0x19>
     be2:	f0 e0       	ldi	r31, 0x00	; 0
     be4:	e8 58       	subi	r30, 0x88	; 136
     be6:	fe 4f       	sbci	r31, 0xFE	; 254
     be8:	95 8f       	std	Z+29, r25	; 0x1d
/home/user/.arduino15/packages/ATTinyCore/hardware/avr/1.5.2/cores/tinymodern/HardwareSerial_private.h:115
      _rx_buffer_head = i;
     bea:	80 93 91 01 	sts	0x0191, r24	; 0x800191 <Serial+0x19>
__vector_16():
/home/user/.arduino15/packages/ATTinyCore/hardware/avr/1.5.2/cores/tinymodern/HardwareSerial0.cpp:50
    Serial._rx_complete_irq();
  }
     bee:	ff 91       	pop	r31
     bf0:	ef 91       	pop	r30
     bf2:	9f 91       	pop	r25
     bf4:	8f 91       	pop	r24
     bf6:	2f 91       	pop	r18
     bf8:	0f 90       	pop	r0
     bfa:	0f be       	out	0x3f, r0	; 63
     bfc:	0f 90       	pop	r0
     bfe:	1f 90       	pop	r1
     c00:	18 95       	reti
_rx_complete_irq():
/home/user/.arduino15/packages/ATTinyCore/hardware/avr/1.5.2/cores/tinymodern/HardwareSerial_private.h:119
    }
  } else {
    // Parity error, read byte but discard it
    *_udr;
     c02:	80 81       	ld	r24, Z
     c04:	f4 cf       	rjmp	.-24     	; 0xbee <__vector_16+0x4c>

00000c06 <__vector_12>:
__vector_12():
/home/user/.arduino15/packages/ATTinyCore/hardware/avr/1.5.2/cores/tinymodern/wiring.c:86
volatile unsigned long millis_timer_overflow_count = 0;
volatile unsigned long millis_timer_millis = 0;
static unsigned char millis_timer_fract = 0;

ISR(MILLISTIMER_OVF_vect)
{
     c06:	1f 92       	push	r1
     c08:	0f 92       	push	r0
     c0a:	0f b6       	in	r0, 0x3f	; 63
     c0c:	0f 92       	push	r0
     c0e:	11 24       	eor	r1, r1
     c10:	2f 93       	push	r18
     c12:	3f 93       	push	r19
     c14:	8f 93       	push	r24
     c16:	9f 93       	push	r25
     c18:	af 93       	push	r26
     c1a:	bf 93       	push	r27
/home/user/.arduino15/packages/ATTinyCore/hardware/avr/1.5.2/cores/tinymodern/wiring.c:89
  // copy these to local variables so they can be stored in registers
  // (volatile variables must be read from memory on every access)
  unsigned long m = millis_timer_millis;
     c1c:	80 91 65 01 	lds	r24, 0x0165	; 0x800165 <millis_timer_millis>
     c20:	90 91 66 01 	lds	r25, 0x0166	; 0x800166 <millis_timer_millis+0x1>
     c24:	a0 91 67 01 	lds	r26, 0x0167	; 0x800167 <millis_timer_millis+0x2>
     c28:	b0 91 68 01 	lds	r27, 0x0168	; 0x800168 <millis_timer_millis+0x3>
/home/user/.arduino15/packages/ATTinyCore/hardware/avr/1.5.2/cores/tinymodern/wiring.c:90
  unsigned char f = millis_timer_fract;
     c2c:	30 91 64 01 	lds	r19, 0x0164	; 0x800164 <millis_timer_fract>
/home/user/.arduino15/packages/ATTinyCore/hardware/avr/1.5.2/cores/tinymodern/wiring.c:102
    f -= FRACT_MAX;
    m += 1;
  }
...rmv */

  f += FRACT_INC;
     c30:	26 e0       	ldi	r18, 0x06	; 6
     c32:	23 0f       	add	r18, r19
/home/user/.arduino15/packages/ATTinyCore/hardware/avr/1.5.2/cores/tinymodern/wiring.c:104

  if (f >= FRACT_MAX)
     c34:	2d 37       	cpi	r18, 0x7D	; 125
     c36:	68 f1       	brcs	.+90     	; 0xc92 <__vector_12+0x8c>
/home/user/.arduino15/packages/ATTinyCore/hardware/avr/1.5.2/cores/tinymodern/wiring.c:106
  {
    f -= FRACT_MAX;
     c38:	29 e8       	ldi	r18, 0x89	; 137
     c3a:	23 0f       	add	r18, r19
/home/user/.arduino15/packages/ATTinyCore/hardware/avr/1.5.2/cores/tinymodern/wiring.c:107
    m = m + MILLIS_INC + 1;
     c3c:	03 96       	adiw	r24, 0x03	; 3
     c3e:	a1 1d       	adc	r26, r1
     c40:	b1 1d       	adc	r27, r1
/home/user/.arduino15/packages/ATTinyCore/hardware/avr/1.5.2/cores/tinymodern/wiring.c:114
  else
  {
    m += MILLIS_INC;
  }

  millis_timer_fract = f;
     c42:	20 93 64 01 	sts	0x0164, r18	; 0x800164 <millis_timer_fract>
/home/user/.arduino15/packages/ATTinyCore/hardware/avr/1.5.2/cores/tinymodern/wiring.c:115
  millis_timer_millis = m;
     c46:	80 93 65 01 	sts	0x0165, r24	; 0x800165 <millis_timer_millis>
     c4a:	90 93 66 01 	sts	0x0166, r25	; 0x800166 <millis_timer_millis+0x1>
     c4e:	a0 93 67 01 	sts	0x0167, r26	; 0x800167 <millis_timer_millis+0x2>
     c52:	b0 93 68 01 	sts	0x0168, r27	; 0x800168 <millis_timer_millis+0x3>
/home/user/.arduino15/packages/ATTinyCore/hardware/avr/1.5.2/cores/tinymodern/wiring.c:116
  millis_timer_overflow_count++;
     c56:	80 91 69 01 	lds	r24, 0x0169	; 0x800169 <millis_timer_overflow_count>
     c5a:	90 91 6a 01 	lds	r25, 0x016A	; 0x80016a <millis_timer_overflow_count+0x1>
     c5e:	a0 91 6b 01 	lds	r26, 0x016B	; 0x80016b <millis_timer_overflow_count+0x2>
     c62:	b0 91 6c 01 	lds	r27, 0x016C	; 0x80016c <millis_timer_overflow_count+0x3>
     c66:	01 96       	adiw	r24, 0x01	; 1
     c68:	a1 1d       	adc	r26, r1
     c6a:	b1 1d       	adc	r27, r1
     c6c:	80 93 69 01 	sts	0x0169, r24	; 0x800169 <millis_timer_overflow_count>
     c70:	90 93 6a 01 	sts	0x016A, r25	; 0x80016a <millis_timer_overflow_count+0x1>
     c74:	a0 93 6b 01 	sts	0x016B, r26	; 0x80016b <millis_timer_overflow_count+0x2>
     c78:	b0 93 6c 01 	sts	0x016C, r27	; 0x80016c <millis_timer_overflow_count+0x3>
/home/user/.arduino15/packages/ATTinyCore/hardware/avr/1.5.2/cores/tinymodern/wiring.c:117
}
     c7c:	bf 91       	pop	r27
     c7e:	af 91       	pop	r26
     c80:	9f 91       	pop	r25
     c82:	8f 91       	pop	r24
     c84:	3f 91       	pop	r19
     c86:	2f 91       	pop	r18
     c88:	0f 90       	pop	r0
     c8a:	0f be       	out	0x3f, r0	; 63
     c8c:	0f 90       	pop	r0
     c8e:	1f 90       	pop	r1
     c90:	18 95       	reti
/home/user/.arduino15/packages/ATTinyCore/hardware/avr/1.5.2/cores/tinymodern/wiring.c:111
    f -= FRACT_MAX;
    m = m + MILLIS_INC + 1;
  }
  else
  {
    m += MILLIS_INC;
     c92:	02 96       	adiw	r24, 0x02	; 2
     c94:	a1 1d       	adc	r26, r1
     c96:	b1 1d       	adc	r27, r1
     c98:	d4 cf       	rjmp	.-88     	; 0xc42 <__vector_12+0x3c>

00000c9a <__vector_24>:
__vector_24():
/home/user/.arduino15/packages/ATTinyCore/hardware/avr/1.5.2/libraries/Wire/src/USI_TWI_Slave/USI_TWI_Slave.c:207
/*----------------------------------------------------------
 Handles all the communication. Is disabled only when waiting
 for new Start Condition.
----------------------------------------------------------*/
ISR(USI_OVERFLOW_VECTOR)
{
     c9a:	1f 92       	push	r1
     c9c:	0f 92       	push	r0
     c9e:	0f b6       	in	r0, 0x3f	; 63
     ca0:	0f 92       	push	r0
     ca2:	11 24       	eor	r1, r1
     ca4:	2f 93       	push	r18
     ca6:	8f 93       	push	r24
     ca8:	9f 93       	push	r25
     caa:	ef 93       	push	r30
     cac:	ff 93       	push	r31
/home/user/.arduino15/packages/ATTinyCore/hardware/avr/1.5.2/libraries/Wire/src/USI_TWI_Slave/USI_TWI_Slave.c:212
  unsigned char tmpRxHead;
  unsigned char tmpTxTail; // Temporary variables to store volatiles
  unsigned char tmpUSIDR;

  switch (USI_TWI_Overflow_State) {
     cae:	80 91 63 01 	lds	r24, 0x0163	; 0x800163 <USI_TWI_Overflow_State>
     cb2:	82 30       	cpi	r24, 0x02	; 2
     cb4:	09 f4       	brne	.+2      	; 0xcb8 <__vector_24+0x1e>
     cb6:	5f c0       	rjmp	.+190    	; 0xd76 <__vector_24+0xdc>
     cb8:	78 f4       	brcc	.+30     	; 0xcd8 <__vector_24+0x3e>
     cba:	88 23       	and	r24, r24
     cbc:	49 f1       	breq	.+82     	; 0xd10 <__vector_24+0x76>
     cbe:	81 30       	cpi	r24, 0x01	; 1
     cc0:	09 f4       	brne	.+2      	; 0xcc4 <__vector_24+0x2a>
     cc2:	3f c0       	rjmp	.+126    	; 0xd42 <__vector_24+0xa8>
/home/user/.arduino15/packages/ATTinyCore/hardware/avr/1.5.2/libraries/Wire/src/USI_TWI_Slave/USI_TWI_Slave.c:306
    {
      SET_USI_TO_SEND_NACK();
    }
    break;
  }
}
     cc4:	ff 91       	pop	r31
     cc6:	ef 91       	pop	r30
     cc8:	9f 91       	pop	r25
     cca:	8f 91       	pop	r24
     ccc:	2f 91       	pop	r18
     cce:	0f 90       	pop	r0
     cd0:	0f be       	out	0x3f, r0	; 63
     cd2:	0f 90       	pop	r0
     cd4:	1f 90       	pop	r1
     cd6:	18 95       	reti
/home/user/.arduino15/packages/ATTinyCore/hardware/avr/1.5.2/libraries/Wire/src/USI_TWI_Slave/USI_TWI_Slave.c:212
{
  unsigned char tmpRxHead;
  unsigned char tmpTxTail; // Temporary variables to store volatiles
  unsigned char tmpUSIDR;

  switch (USI_TWI_Overflow_State) {
     cd8:	84 30       	cpi	r24, 0x04	; 4
     cda:	09 f4       	brne	.+2      	; 0xcde <__vector_24+0x44>
     cdc:	52 c0       	rjmp	.+164    	; 0xd82 <__vector_24+0xe8>
     cde:	50 f1       	brcs	.+84     	; 0xd34 <__vector_24+0x9a>
     ce0:	85 30       	cpi	r24, 0x05	; 5
     ce2:	81 f7       	brne	.-32     	; 0xcc4 <__vector_24+0x2a>
/home/user/.arduino15/packages/ATTinyCore/hardware/avr/1.5.2/libraries/Wire/src/USI_TWI_Slave/USI_TWI_Slave.c:293
    break;

  // Copy data from USIDR and send ACK. Next USI_SLAVE_REQUEST_DATA
  case USI_SLAVE_GET_DATA_AND_SEND_ACK:
    // Put data into Buffer
    USI_TWI_Overflow_State = USI_SLAVE_REQUEST_DATA;
     ce4:	84 e0       	ldi	r24, 0x04	; 4
     ce6:	80 93 63 01 	sts	0x0163, r24	; 0x800163 <USI_TWI_Overflow_State>
/home/user/.arduino15/packages/ATTinyCore/hardware/avr/1.5.2/libraries/Wire/src/USI_TWI_Slave/USI_TWI_Slave.c:294
    tmpUSIDR              = USIDR; // Not necessary, but prevents warnings
     cea:	9c b5       	in	r25, 0x2c	; 44
/home/user/.arduino15/packages/ATTinyCore/hardware/avr/1.5.2/libraries/Wire/src/USI_TWI_Slave/USI_TWI_Slave.c:295
    tmpRxHead = (TWI_RxHead + 1) & TWI_RX_BUFFER_MASK;
     cec:	80 91 6d 01 	lds	r24, 0x016D	; 0x80016d <TWI_RxHead>
     cf0:	8f 5f       	subi	r24, 0xFF	; 255
     cf2:	8f 70       	andi	r24, 0x0F	; 15
/home/user/.arduino15/packages/ATTinyCore/hardware/avr/1.5.2/libraries/Wire/src/USI_TWI_Slave/USI_TWI_Slave.c:296
    if (TWI_RxTail != tmpRxHead) {
     cf4:	20 91 6e 01 	lds	r18, 0x016E	; 0x80016e <TWI_RxTail>
     cf8:	28 17       	cp	r18, r24
     cfa:	09 f4       	brne	.+2      	; 0xcfe <__vector_24+0x64>
     cfc:	47 c0       	rjmp	.+142    	; 0xd8c <__vector_24+0xf2>
/home/user/.arduino15/packages/ATTinyCore/hardware/avr/1.5.2/libraries/Wire/src/USI_TWI_Slave/USI_TWI_Slave.c:297
      TWI_RxHead            = tmpRxHead;
     cfe:	80 93 6d 01 	sts	0x016D, r24	; 0x80016d <TWI_RxHead>
/home/user/.arduino15/packages/ATTinyCore/hardware/avr/1.5.2/libraries/Wire/src/USI_TWI_Slave/USI_TWI_Slave.c:298
      TWI_RxBuf[TWI_RxHead] = tmpUSIDR;
     d02:	e0 91 6d 01 	lds	r30, 0x016D	; 0x80016d <TWI_RxHead>
     d06:	f0 e0       	ldi	r31, 0x00	; 0
     d08:	ee 5b       	subi	r30, 0xBE	; 190
     d0a:	fe 4f       	sbci	r31, 0xFE	; 254
     d0c:	90 83       	st	Z, r25
     d0e:	0c c0       	rjmp	.+24     	; 0xd28 <__vector_24+0x8e>
/home/user/.arduino15/packages/ATTinyCore/hardware/avr/1.5.2/libraries/Wire/src/USI_TWI_Slave/USI_TWI_Slave.c:216

  switch (USI_TWI_Overflow_State) {
  // ---------- Address mode ----------
  // Check address and send ACK (and next USI_SLAVE_SEND_DATA) if OK, else reset USI.
  case USI_SLAVE_CHECK_ADDRESS:
    if ((USIDR == 0) || ((USIDR >> 1) == TWI_slaveAddress)) {
     d10:	8c b5       	in	r24, 0x2c	; 44
     d12:	88 23       	and	r24, r24
     d14:	19 f0       	breq	.+6      	; 0xd1c <__vector_24+0x82>
     d16:	8c b5       	in	r24, 0x2c	; 44
     d18:	86 95       	lsr	r24
     d1a:	79 f4       	brne	.+30     	; 0xd3a <__vector_24+0xa0>
/home/user/.arduino15/packages/ATTinyCore/hardware/avr/1.5.2/libraries/Wire/src/USI_TWI_Slave/USI_TWI_Slave.c:217
      if (USIDR & 0x01) {
     d1c:	0c b4       	in	r0, 0x2c	; 44
     d1e:	00 fe       	sbrs	r0, 0
     d20:	07 c0       	rjmp	.+14     	; 0xd30 <__vector_24+0x96>
/home/user/.arduino15/packages/ATTinyCore/hardware/avr/1.5.2/libraries/Wire/src/USI_TWI_Slave/USI_TWI_Slave.c:224
          // reset tx buffer and call callback
          tmpTxTail = TWI_TxHead;
          TWI_TxTail = tmpTxTail;
          USI_TWI_On_Slave_Transmit();
        }
        USI_TWI_Overflow_State = USI_SLAVE_SEND_DATA;
     d22:	81 e0       	ldi	r24, 0x01	; 1
/home/user/.arduino15/packages/ATTinyCore/hardware/avr/1.5.2/libraries/Wire/src/USI_TWI_Slave/USI_TWI_Slave.c:226
      } else {
        USI_TWI_Overflow_State = USI_SLAVE_REQUEST_DATA;
     d24:	80 93 63 01 	sts	0x0163, r24	; 0x800163 <USI_TWI_Overflow_State>
/home/user/.arduino15/packages/ATTinyCore/hardware/avr/1.5.2/libraries/Wire/src/USI_TWI_Slave/USI_TWI_Slave.c:228
      }
      SET_USI_TO_SEND_ACK();
     d28:	1c bc       	out	0x2c, r1	; 44
     d2a:	61 9a       	sbi	0x0c, 1	; 12
/home/user/.arduino15/packages/ATTinyCore/hardware/avr/1.5.2/libraries/Wire/src/USI_TWI_Slave/USI_TWI_Slave.c:302
      TWI_RxHead            = tmpRxHead;
      TWI_RxBuf[TWI_RxHead] = tmpUSIDR;
      SET_USI_TO_SEND_ACK();
    } else // If the buffer is full then:
    {
      SET_USI_TO_SEND_NACK();
     d2c:	8e e7       	ldi	r24, 0x7E	; 126
     d2e:	21 c0       	rjmp	.+66     	; 0xd72 <__vector_24+0xd8>
/home/user/.arduino15/packages/ATTinyCore/hardware/avr/1.5.2/libraries/Wire/src/USI_TWI_Slave/USI_TWI_Slave.c:226
          TWI_TxTail = tmpTxTail;
          USI_TWI_On_Slave_Transmit();
        }
        USI_TWI_Overflow_State = USI_SLAVE_SEND_DATA;
      } else {
        USI_TWI_Overflow_State = USI_SLAVE_REQUEST_DATA;
     d30:	84 e0       	ldi	r24, 0x04	; 4
     d32:	f8 cf       	rjmp	.-16     	; 0xd24 <__vector_24+0x8a>
/home/user/.arduino15/packages/ATTinyCore/hardware/avr/1.5.2/libraries/Wire/src/USI_TWI_Slave/USI_TWI_Slave.c:237
    break;

  // ----- Master write data mode ------
  // Check reply and goto USI_SLAVE_SEND_DATA if OK, else reset USI.
  case USI_SLAVE_CHECK_REPLY_FROM_SEND_DATA:
    if (USIDR) // If NACK, the master does not want more data.
     d34:	8c b5       	in	r24, 0x2c	; 44
     d36:	88 23       	and	r24, r24
     d38:	21 f0       	breq	.+8      	; 0xd42 <__vector_24+0xa8>
/home/user/.arduino15/packages/ATTinyCore/hardware/avr/1.5.2/libraries/Wire/src/USI_TWI_Slave/USI_TWI_Slave.c:255
    if (TWI_TxHead != tmpTxTail) {
      TWI_TxTail = (TWI_TxTail + 1) & TWI_TX_BUFFER_MASK;
      USIDR      = TWI_TxBuf[TWI_TxTail];
    } else // If the buffer is empty then:
    {
      SET_USI_TO_TWI_START_CONDITION_MODE();
     d3a:	61 98       	cbi	0x0c, 1	; 12
     d3c:	88 ea       	ldi	r24, 0xA8	; 168
     d3e:	8a bd       	out	0x2a, r24	; 42
     d40:	17 c0       	rjmp	.+46     	; 0xd70 <__vector_24+0xd6>
/home/user/.arduino15/packages/ATTinyCore/hardware/avr/1.5.2/libraries/Wire/src/USI_TWI_Slave/USI_TWI_Slave.c:249
  // Copy data from buffer to USIDR and set USI to shift byte. Next USI_SLAVE_REQUEST_REPLY_FROM_SEND_DATA
  /* Falls through. */
  case USI_SLAVE_SEND_DATA:

    // Get data from Buffer
    tmpTxTail = TWI_TxTail; // Not necessary, but prevents warnings
     d42:	80 91 73 01 	lds	r24, 0x0173	; 0x800173 <TWI_TxTail>
/home/user/.arduino15/packages/ATTinyCore/hardware/avr/1.5.2/libraries/Wire/src/USI_TWI_Slave/USI_TWI_Slave.c:250
    if (TWI_TxHead != tmpTxTail) {
     d46:	90 91 74 01 	lds	r25, 0x0174	; 0x800174 <TWI_TxHead>
     d4a:	98 17       	cp	r25, r24
     d4c:	b1 f3       	breq	.-20     	; 0xd3a <__vector_24+0xa0>
/home/user/.arduino15/packages/ATTinyCore/hardware/avr/1.5.2/libraries/Wire/src/USI_TWI_Slave/USI_TWI_Slave.c:251
      TWI_TxTail = (TWI_TxTail + 1) & TWI_TX_BUFFER_MASK;
     d4e:	80 91 73 01 	lds	r24, 0x0173	; 0x800173 <TWI_TxTail>
     d52:	8f 5f       	subi	r24, 0xFF	; 255
     d54:	8f 70       	andi	r24, 0x0F	; 15
     d56:	80 93 73 01 	sts	0x0173, r24	; 0x800173 <TWI_TxTail>
/home/user/.arduino15/packages/ATTinyCore/hardware/avr/1.5.2/libraries/Wire/src/USI_TWI_Slave/USI_TWI_Slave.c:252
      USIDR      = TWI_TxBuf[TWI_TxTail];
     d5a:	e0 91 73 01 	lds	r30, 0x0173	; 0x800173 <TWI_TxTail>
     d5e:	f0 e0       	ldi	r31, 0x00	; 0
     d60:	ee 5a       	subi	r30, 0xAE	; 174
     d62:	fe 4f       	sbci	r31, 0xFE	; 254
     d64:	80 81       	ld	r24, Z
     d66:	8c bd       	out	0x2c, r24	; 44
/home/user/.arduino15/packages/ATTinyCore/hardware/avr/1.5.2/libraries/Wire/src/USI_TWI_Slave/USI_TWI_Slave.c:258
    } else // If the buffer is empty then:
    {
      SET_USI_TO_TWI_START_CONDITION_MODE();
      return;
    }
    USI_TWI_Overflow_State = USI_SLAVE_REQUEST_REPLY_FROM_SEND_DATA;
     d68:	82 e0       	ldi	r24, 0x02	; 2
     d6a:	80 93 63 01 	sts	0x0163, r24	; 0x800163 <USI_TWI_Overflow_State>
/home/user/.arduino15/packages/ATTinyCore/hardware/avr/1.5.2/libraries/Wire/src/USI_TWI_Slave/USI_TWI_Slave.c:259
    SET_USI_TO_SEND_DATA();
     d6e:	61 9a       	sbi	0x0c, 1	; 12
/home/user/.arduino15/packages/ATTinyCore/hardware/avr/1.5.2/libraries/Wire/src/USI_TWI_Slave/USI_TWI_Slave.c:272

  // ----- Master read data mode ------
  // Set USI to sample data from master. Next USI_SLAVE_GET_DATA_AND_SEND_ACK.
  case USI_SLAVE_REQUEST_DATA:
    USI_TWI_Overflow_State = USI_SLAVE_GET_DATA_AND_SEND_ACK;
    SET_USI_TO_READ_DATA();
     d70:	80 e7       	ldi	r24, 0x70	; 112
/home/user/.arduino15/packages/ATTinyCore/hardware/avr/1.5.2/libraries/Wire/src/USI_TWI_Slave/USI_TWI_Slave.c:302
      TWI_RxHead            = tmpRxHead;
      TWI_RxBuf[TWI_RxHead] = tmpUSIDR;
      SET_USI_TO_SEND_ACK();
    } else // If the buffer is full then:
    {
      SET_USI_TO_SEND_NACK();
     d72:	8b bd       	out	0x2b, r24	; 43
     d74:	a7 cf       	rjmp	.-178    	; 0xcc4 <__vector_24+0x2a>
/home/user/.arduino15/packages/ATTinyCore/hardware/avr/1.5.2/libraries/Wire/src/USI_TWI_Slave/USI_TWI_Slave.c:264
    SET_USI_TO_SEND_DATA();
    break;

  // Set USI to sample reply from master. Next USI_SLAVE_CHECK_REPLY_FROM_SEND_DATA
  case USI_SLAVE_REQUEST_REPLY_FROM_SEND_DATA:
    USI_TWI_Overflow_State = USI_SLAVE_CHECK_REPLY_FROM_SEND_DATA;
     d76:	83 e0       	ldi	r24, 0x03	; 3
     d78:	80 93 63 01 	sts	0x0163, r24	; 0x800163 <USI_TWI_Overflow_State>
/home/user/.arduino15/packages/ATTinyCore/hardware/avr/1.5.2/libraries/Wire/src/USI_TWI_Slave/USI_TWI_Slave.c:265
    SET_USI_TO_READ_ACK();
     d7c:	61 98       	cbi	0x0c, 1	; 12
     d7e:	1c bc       	out	0x2c, r1	; 44
     d80:	d5 cf       	rjmp	.-86     	; 0xd2c <__vector_24+0x92>
/home/user/.arduino15/packages/ATTinyCore/hardware/avr/1.5.2/libraries/Wire/src/USI_TWI_Slave/USI_TWI_Slave.c:271
    break;

  // ----- Master read data mode ------
  // Set USI to sample data from master. Next USI_SLAVE_GET_DATA_AND_SEND_ACK.
  case USI_SLAVE_REQUEST_DATA:
    USI_TWI_Overflow_State = USI_SLAVE_GET_DATA_AND_SEND_ACK;
     d82:	85 e0       	ldi	r24, 0x05	; 5
     d84:	80 93 63 01 	sts	0x0163, r24	; 0x800163 <USI_TWI_Overflow_State>
/home/user/.arduino15/packages/ATTinyCore/hardware/avr/1.5.2/libraries/Wire/src/USI_TWI_Slave/USI_TWI_Slave.c:272
    SET_USI_TO_READ_DATA();
     d88:	61 98       	cbi	0x0c, 1	; 12
     d8a:	f2 cf       	rjmp	.-28     	; 0xd70 <__vector_24+0xd6>
/home/user/.arduino15/packages/ATTinyCore/hardware/avr/1.5.2/libraries/Wire/src/USI_TWI_Slave/USI_TWI_Slave.c:302
      TWI_RxHead            = tmpRxHead;
      TWI_RxBuf[TWI_RxHead] = tmpUSIDR;
      SET_USI_TO_SEND_ACK();
    } else // If the buffer is full then:
    {
      SET_USI_TO_SEND_NACK();
     d8c:	61 98       	cbi	0x0c, 1	; 12
     d8e:	ce cf       	rjmp	.-100    	; 0xd2c <__vector_24+0x92>

00000d90 <__vector_23>:
__vector_23():
/home/user/.arduino15/packages/ATTinyCore/hardware/avr/1.5.2/libraries/Wire/src/USI_TWI_Slave/USI_TWI_Slave.c:165
ISR(USI_START_VECTOR)
#elif __ICCAVR__
#pragma vector = USI_START_VECTOR
__interrupt void USI_Start_Condition_ISR(void)
#endif
{
     d90:	1f 92       	push	r1
     d92:	0f 92       	push	r0
     d94:	0f b6       	in	r0, 0x3f	; 63
     d96:	0f 92       	push	r0
     d98:	11 24       	eor	r1, r1
     d9a:	8f 93       	push	r24
/home/user/.arduino15/packages/ATTinyCore/hardware/avr/1.5.2/libraries/Wire/src/USI_TWI_Slave/USI_TWI_Slave.c:178
      // reset rx buffer
      TWI_RxTail = tmpRxHead;
    }
  }

  USI_TWI_Overflow_State = USI_SLAVE_CHECK_ADDRESS;
     d9c:	10 92 63 01 	sts	0x0163, r1	; 0x800163 <USI_TWI_Overflow_State>
/home/user/.arduino15/packages/ATTinyCore/hardware/avr/1.5.2/libraries/Wire/src/USI_TWI_Slave/USI_TWI_Slave.c:179
  DDR_USI &= ~(1 << PORT_USI_SDA); // Set SDA as input
     da0:	61 98       	cbi	0x0c, 1	; 12
/home/user/.arduino15/packages/ATTinyCore/hardware/avr/1.5.2/libraries/Wire/src/USI_TWI_Slave/USI_TWI_Slave.c:180
  while ((tmpPin = (PIN_USI_CL & (1 << PORT_USI_SCL))) && ((PIN_USI & (1 << PIN_USI_SDA)) == 0))
     da2:	39 9b       	sbis	0x07, 1	; 7
     da4:	04 c0       	rjmp	.+8      	; 0xdae <__vector_23+0x1e>
     da6:	59 9b       	sbis	0x0b, 1	; 11
     da8:	fc cf       	rjmp	.-8      	; 0xda2 <__vector_23+0x12>
/home/user/.arduino15/packages/ATTinyCore/hardware/avr/1.5.2/libraries/Wire/src/USI_TWI_Slave/USI_TWI_Slave.c:185
    ; // Wait for SCL to go low to ensure the "Start Condition" has completed.
        // If a Stop condition arises then leave the interrupt to prevent waiting forever.
  if (tmpPin) {
    // Stop Condition (waiting for next Start Condition)
    USICR = (1 << USISIE) | (0 << USIOIE) | // Enable Start Condition Interrupt. Disable Overflow Interrupt.
     daa:	88 ea       	ldi	r24, 0xA8	; 168
     dac:	01 c0       	rjmp	.+2      	; 0xdb0 <__vector_23+0x20>
/home/user/.arduino15/packages/ATTinyCore/hardware/avr/1.5.2/libraries/Wire/src/USI_TWI_Slave/USI_TWI_Slave.c:192
                                            // to first Start Condition (potential failure)
            (1 << USICS1) | (0 << USICS0) | (0 << USICLK) | // Shift Register Clock Source = External, positive edge
            (0 << USITC);
  } else {
    // really Start Condition (Enable Overflow Interrupt)
    USICR = (1 << USISIE) | (1 << USIOIE)
     dae:	88 ef       	ldi	r24, 0xF8	; 248
/home/user/.arduino15/packages/ATTinyCore/hardware/avr/1.5.2/libraries/Wire/src/USI_TWI_Slave/USI_TWI_Slave.c:185
  while ((tmpPin = (PIN_USI_CL & (1 << PORT_USI_SCL))) && ((PIN_USI & (1 << PIN_USI_SDA)) == 0))
    ; // Wait for SCL to go low to ensure the "Start Condition" has completed.
        // If a Stop condition arises then leave the interrupt to prevent waiting forever.
  if (tmpPin) {
    // Stop Condition (waiting for next Start Condition)
    USICR = (1 << USISIE) | (0 << USIOIE) | // Enable Start Condition Interrupt. Disable Overflow Interrupt.
     db0:	8a bd       	out	0x2a, r24	; 42
/home/user/.arduino15/packages/ATTinyCore/hardware/avr/1.5.2/libraries/Wire/src/USI_TWI_Slave/USI_TWI_Slave.c:198
            | // Enable Overflow and Start Condition Interrupt. (Keep StartCondInt to detect RESTART)
            (1 << USIWM1) | (1 << USIWM0) |                 // Set USI in Two-wire mode.
            (1 << USICS1) | (0 << USICS0) | (0 << USICLK) | // Shift Register Clock Source = External, positive edge
            (0 << USITC);
  }
  USISR = (1 << USI_START_COND_INT) | (1 << USIOIF) | (1 << USIPF) | (1 << USIDC) | // Clear flags
     db2:	80 ef       	ldi	r24, 0xF0	; 240
     db4:	8b bd       	out	0x2b, r24	; 43
/home/user/.arduino15/packages/ATTinyCore/hardware/avr/1.5.2/libraries/Wire/src/USI_TWI_Slave/USI_TWI_Slave.c:200
          (0x0 << USICNT0); // Set USI to sample 8 bits i.e. count 16 external pin toggles.
}
     db6:	8f 91       	pop	r24
     db8:	0f 90       	pop	r0
     dba:	0f be       	out	0x3f, r0	; 63
     dbc:	0f 90       	pop	r0
     dbe:	1f 90       	pop	r1
     dc0:	18 95       	reti

00000dc2 <__vector_1>:
__vector_1():
/media/user/Data/Documents/AVR/AVR/elevator_altimeter/elevator_altimeter.ino:110
        Serial.print("Mode :");
        Serial.println(log_mode);
    }
}

ISR(INT0_vect) {
     dc2:	1f 92       	push	r1
     dc4:	0f 92       	push	r0
     dc6:	0f b6       	in	r0, 0x3f	; 63
     dc8:	0f 92       	push	r0
     dca:	11 24       	eor	r1, r1
     dcc:	8f 93       	push	r24
/media/user/Data/Documents/AVR/AVR/elevator_altimeter/elevator_altimeter.ino:111
    alt_data.newDataReady = true;
     dce:	81 e0       	ldi	r24, 0x01	; 1
     dd0:	80 93 de 01 	sts	0x01DE, r24	; 0x8001de <alt_data+0x9>
/media/user/Data/Documents/AVR/AVR/elevator_altimeter/elevator_altimeter.ino:112
}
     dd4:	8f 91       	pop	r24
     dd6:	0f 90       	pop	r0
     dd8:	0f be       	out	0x3f, r0	; 63
     dda:	0f 90       	pop	r0
     ddc:	1f 90       	pop	r1
     dde:	18 95       	reti

00000de0 <__vector_4>:
__vector_4():
/media/user/Data/Documents/AVR/AVR/elevator_altimeter/elevator_altimeter.ino:101
        digitalWrite(LED0, LOW);
    }
    //GOTO sleep
}

ISR(PCINT2_vect) {
     de0:	1f 92       	push	r1
     de2:	0f 92       	push	r0
     de4:	0f b6       	in	r0, 0x3f	; 63
     de6:	0f 92       	push	r0
     de8:	11 24       	eor	r1, r1
     dea:	8f 92       	push	r8
     dec:	9f 92       	push	r9
     dee:	af 92       	push	r10
     df0:	bf 92       	push	r11
     df2:	cf 92       	push	r12
     df4:	df 92       	push	r13
     df6:	ef 92       	push	r14
     df8:	ff 92       	push	r15
     dfa:	0f 93       	push	r16
     dfc:	1f 93       	push	r17
     dfe:	2f 93       	push	r18
     e00:	3f 93       	push	r19
     e02:	4f 93       	push	r20
     e04:	5f 93       	push	r21
     e06:	6f 93       	push	r22
     e08:	7f 93       	push	r23
     e0a:	8f 93       	push	r24
     e0c:	9f 93       	push	r25
     e0e:	af 93       	push	r26
     e10:	bf 93       	push	r27
     e12:	ef 93       	push	r30
     e14:	ff 93       	push	r31
     e16:	cf 93       	push	r28
     e18:	df 93       	push	r29
     e1a:	cd b7       	in	r28, 0x3d	; 61
     e1c:	de b7       	in	r29, 0x3e	; 62
     e1e:	a1 97       	sbiw	r28, 0x21	; 33
     e20:	de bf       	out	0x3e, r29	; 62
     e22:	cd bf       	out	0x3d, r28	; 61
digitalRead():
/home/user/.arduino15/packages/ATTinyCore/hardware/avr/1.5.2/cores/tinymodern/wiring_digital.c:248
#endif

int digitalRead(uint8_t pin)
{
  if (pin&128) {pin=analogInputToDigitalPin((pin&127));}
  uint8_t bit = digitalPinToBitMask(pin);
     e24:	ef e9       	ldi	r30, 0x9F	; 159
     e26:	f0 e0       	ldi	r31, 0x00	; 0
     e28:	84 91       	lpm	r24, Z
/home/user/.arduino15/packages/ATTinyCore/hardware/avr/1.5.2/cores/tinymodern/wiring_digital.c:249
  uint8_t port = digitalPinToPort(pin);
     e2a:	ed e8       	ldi	r30, 0x8D	; 141
     e2c:	f0 e0       	ldi	r31, 0x00	; 0
     e2e:	e4 91       	lpm	r30, Z
/home/user/.arduino15/packages/ATTinyCore/hardware/avr/1.5.2/cores/tinymodern/wiring_digital.c:251

  if (port == NOT_A_PIN) return LOW;
     e30:	ee 23       	and	r30, r30
     e32:	41 f0       	breq	.+16     	; 0xe44 <__vector_4+0x64>
/home/user/.arduino15/packages/ATTinyCore/hardware/avr/1.5.2/cores/tinymodern/wiring_digital.c:259
  // "read" should *NEVER* change the behavior of the thing you're using it on.
  // That's why it's called "read" not "write". As an added bonus, sets the
  // stage for auto-fast-digitalRead() for compile time known pins.
  // turnOffPWM( pin );

  if (*portInputRegister(port) & bit) return HIGH;
     e34:	f0 e0       	ldi	r31, 0x00	; 0
     e36:	e0 59       	subi	r30, 0x90	; 144
     e38:	ff 4f       	sbci	r31, 0xFF	; 255
     e3a:	a4 91       	lpm	r26, Z
     e3c:	b0 e0       	ldi	r27, 0x00	; 0
     e3e:	ec 91       	ld	r30, X
     e40:	e8 23       	and	r30, r24
     e42:	d9 f5       	brne	.+118    	; 0xeba <__vector_4+0xda>
__vector_4():
/media/user/Data/Documents/AVR/AVR/elevator_altimeter/elevator_altimeter.ino:104

    if (!digitalRead(USER_SW)) {
        if (++log_mode > 4)log_mode = 0;
     e44:	80 91 62 01 	lds	r24, 0x0162	; 0x800162 <log_mode>
     e48:	8f 5f       	subi	r24, 0xFF	; 255
     e4a:	85 30       	cpi	r24, 0x05	; 5
     e4c:	08 f0       	brcs	.+2      	; 0xe50 <__vector_4+0x70>
     e4e:	58 c0       	rjmp	.+176    	; 0xf00 <__vector_4+0x120>
     e50:	80 93 62 01 	sts	0x0162, r24	; 0x800162 <log_mode>
write():
     e54:	8b e3       	ldi	r24, 0x3B	; 59
     e56:	91 e0       	ldi	r25, 0x01	; 1
     e58:	0e 94 92 05 	call	0xb24	; 0xb24 <Print::write(char const*) [clone .part.2] [clone .constprop.26]>
print():
/home/user/.arduino15/packages/ATTinyCore/hardware/avr/1.5.2/cores/tinymodern/Print.cpp:71
  return write(c);
}

size_t Print::print(unsigned char b, int base)
{
  return print((unsigned long) b, base);
     e5c:	c0 90 62 01 	lds	r12, 0x0162	; 0x800162 <log_mode>
     e60:	d1 2c       	mov	r13, r1
     e62:	f1 2c       	mov	r15, r1
     e64:	e1 2c       	mov	r14, r1
printNumber():
/home/user/.arduino15/packages/ATTinyCore/hardware/avr/1.5.2/cores/tinymodern/Print.cpp:234

size_t Print::printNumber(unsigned long n, uint8_t base) {
  char buf[8 * sizeof(long) + 1]; // Assumes 8-bit chars plus zero byte.
  char *str = &buf[sizeof(buf) - 1];

  *str = '\0';
     e66:	19 a2       	std	Y+33, r1	; 0x21
     e68:	8e 01       	movw	r16, r28
     e6a:	0f 5d       	subi	r16, 0xDF	; 223
     e6c:	1f 4f       	sbci	r17, 0xFF	; 255
/home/user/.arduino15/packages/ATTinyCore/hardware/avr/1.5.2/cores/tinymodern/Print.cpp:241
  // prevent crash if called with base == 1
  if (base < 2) base = 10;

  do {
    unsigned long m = n;
    n /= base;
     e6e:	8a e0       	ldi	r24, 0x0A	; 10
     e70:	88 2e       	mov	r8, r24
     e72:	91 2c       	mov	r9, r1
     e74:	a1 2c       	mov	r10, r1
     e76:	b1 2c       	mov	r11, r1
     e78:	c7 01       	movw	r24, r14
     e7a:	b6 01       	movw	r22, r12
     e7c:	a5 01       	movw	r20, r10
     e7e:	94 01       	movw	r18, r8
     e80:	0e 94 51 0b 	call	0x16a2	; 0x16a2 <__udivmodsi4>
/home/user/.arduino15/packages/ATTinyCore/hardware/avr/1.5.2/cores/tinymodern/Print.cpp:242
    char c = m - base * n;
     e84:	82 2f       	mov	r24, r18
     e86:	6a e0       	ldi	r22, 0x0A	; 10
     e88:	0e 94 48 0b 	call	0x1690	; 0x1690 <__mulqi3>
     e8c:	9c 2d       	mov	r25, r12
     e8e:	98 1b       	sub	r25, r24
     e90:	89 2f       	mov	r24, r25
/home/user/.arduino15/packages/ATTinyCore/hardware/avr/1.5.2/cores/tinymodern/Print.cpp:243
    *--str = c < 10 ? c + '0' : c + 'A' - 10;
     e92:	9a 30       	cpi	r25, 0x0A	; 10
     e94:	c4 f5       	brge	.+112    	; 0xf06 <__vector_4+0x126>
     e96:	80 5d       	subi	r24, 0xD0	; 208
     e98:	f8 01       	movw	r30, r16
     e9a:	82 93       	st	-Z, r24
     e9c:	8f 01       	movw	r16, r30
     e9e:	69 01       	movw	r12, r18
     ea0:	7a 01       	movw	r14, r20
/home/user/.arduino15/packages/ATTinyCore/hardware/avr/1.5.2/cores/tinymodern/Print.cpp:244
  } while(n);
     ea2:	c1 14       	cp	r12, r1
     ea4:	d1 04       	cpc	r13, r1
     ea6:	e1 04       	cpc	r14, r1
     ea8:	f1 04       	cpc	r15, r1
     eaa:	31 f7       	brne	.-52     	; 0xe78 <__vector_4+0x98>
write():
/home/user/.arduino15/packages/ATTinyCore/hardware/avr/1.5.2/cores/tinymodern/Print.h:50
    int getWriteError() { return write_error; }
    void clearWriteError() { setWriteError(0); }

    virtual size_t write(uint8_t) = 0;
    size_t write(const char *str) {
      if (str == NULL) return 0;
     eac:	30 97       	sbiw	r30, 0x00	; 0
     eae:	19 f0       	breq	.+6      	; 0xeb6 <__vector_4+0xd6>
     eb0:	cf 01       	movw	r24, r30
     eb2:	0e 94 92 05 	call	0xb24	; 0xb24 <Print::write(char const*) [clone .part.2] [clone .constprop.26]>
println():
/home/user/.arduino15/packages/ATTinyCore/hardware/avr/1.5.2/cores/tinymodern/Print.cpp:154
}

size_t Print::println(unsigned char b, int base)
{
  size_t n = print(b, base);
  n += println();
     eb6:	0e 94 8b 01 	call	0x316	; 0x316 <Print::println() [clone .constprop.27]>
__vector_4():
/media/user/Data/Documents/AVR/AVR/elevator_altimeter/elevator_altimeter.ino:108
        Serial.print("Mode :");
        Serial.println(log_mode);
    }
}
     eba:	a1 96       	adiw	r28, 0x21	; 33
     ebc:	0f b6       	in	r0, 0x3f	; 63
     ebe:	f8 94       	cli
     ec0:	de bf       	out	0x3e, r29	; 62
     ec2:	0f be       	out	0x3f, r0	; 63
     ec4:	cd bf       	out	0x3d, r28	; 61
     ec6:	df 91       	pop	r29
     ec8:	cf 91       	pop	r28
     eca:	ff 91       	pop	r31
     ecc:	ef 91       	pop	r30
     ece:	bf 91       	pop	r27
     ed0:	af 91       	pop	r26
     ed2:	9f 91       	pop	r25
     ed4:	8f 91       	pop	r24
     ed6:	7f 91       	pop	r23
     ed8:	6f 91       	pop	r22
     eda:	5f 91       	pop	r21
     edc:	4f 91       	pop	r20
     ede:	3f 91       	pop	r19
     ee0:	2f 91       	pop	r18
     ee2:	1f 91       	pop	r17
     ee4:	0f 91       	pop	r16
     ee6:	ff 90       	pop	r15
     ee8:	ef 90       	pop	r14
     eea:	df 90       	pop	r13
     eec:	cf 90       	pop	r12
     eee:	bf 90       	pop	r11
     ef0:	af 90       	pop	r10
     ef2:	9f 90       	pop	r9
     ef4:	8f 90       	pop	r8
     ef6:	0f 90       	pop	r0
     ef8:	0f be       	out	0x3f, r0	; 63
     efa:	0f 90       	pop	r0
     efc:	1f 90       	pop	r1
     efe:	18 95       	reti
/media/user/Data/Documents/AVR/AVR/elevator_altimeter/elevator_altimeter.ino:104
}

ISR(PCINT2_vect) {

    if (!digitalRead(USER_SW)) {
        if (++log_mode > 4)log_mode = 0;
     f00:	10 92 62 01 	sts	0x0162, r1	; 0x800162 <log_mode>
     f04:	a7 cf       	rjmp	.-178    	; 0xe54 <__vector_4+0x74>
printNumber():
/home/user/.arduino15/packages/ATTinyCore/hardware/avr/1.5.2/cores/tinymodern/Print.cpp:243

  do {
    unsigned long m = n;
    n /= base;
    char c = m - base * n;
    *--str = c < 10 ? c + '0' : c + 'A' - 10;
     f06:	89 5c       	subi	r24, 0xC9	; 201
     f08:	c7 cf       	rjmp	.-114    	; 0xe98 <__vector_4+0xb8>

00000f0a <global constructors keyed to 65535_0_Alt.cpp.o.2396>:
_GLOBAL__I_65535_0_Alt.cpp.o.2396():
     f0a:	e8 e7       	ldi	r30, 0x78	; 120
     f0c:	f1 e0       	ldi	r31, 0x01	; 1
     f0e:	13 82       	std	Z+3, r1	; 0x03
     f10:	12 82       	std	Z+2, r1	; 0x02
     f12:	88 ee       	ldi	r24, 0xE8	; 232
     f14:	93 e0       	ldi	r25, 0x03	; 3
     f16:	a0 e0       	ldi	r26, 0x00	; 0
     f18:	b0 e0       	ldi	r27, 0x00	; 0
     f1a:	84 83       	std	Z+4, r24	; 0x04
     f1c:	95 83       	std	Z+5, r25	; 0x05
     f1e:	a6 83       	std	Z+6, r26	; 0x06
     f20:	b7 83       	std	Z+7, r27	; 0x07
     f22:	8d e0       	ldi	r24, 0x0D	; 13
     f24:	91 e0       	ldi	r25, 0x01	; 1
     f26:	91 83       	std	Z+1, r25	; 0x01
     f28:	80 83       	st	Z, r24
     f2a:	82 e4       	ldi	r24, 0x42	; 66
     f2c:	90 e0       	ldi	r25, 0x00	; 0
     f2e:	95 87       	std	Z+13, r25	; 0x0d
     f30:	84 87       	std	Z+12, r24	; 0x0c
     f32:	81 e4       	ldi	r24, 0x41	; 65
     f34:	90 e0       	ldi	r25, 0x00	; 0
     f36:	97 87       	std	Z+15, r25	; 0x0f
     f38:	86 87       	std	Z+14, r24	; 0x0e
     f3a:	86 e4       	ldi	r24, 0x46	; 70
     f3c:	90 e0       	ldi	r25, 0x00	; 0
     f3e:	91 8b       	std	Z+17, r25	; 0x11
     f40:	80 8b       	std	Z+16, r24	; 0x10
     f42:	85 e4       	ldi	r24, 0x45	; 69
     f44:	90 e0       	ldi	r25, 0x00	; 0
     f46:	93 8b       	std	Z+19, r25	; 0x13
     f48:	82 8b       	std	Z+18, r24	; 0x12
     f4a:	84 e4       	ldi	r24, 0x44	; 68
     f4c:	90 e0       	ldi	r25, 0x00	; 0
     f4e:	95 8b       	std	Z+21, r25	; 0x15
     f50:	84 8b       	std	Z+20, r24	; 0x14
     f52:	80 e4       	ldi	r24, 0x40	; 64
     f54:	90 e0       	ldi	r25, 0x00	; 0
     f56:	97 8b       	std	Z+23, r25	; 0x17
     f58:	86 8b       	std	Z+22, r24	; 0x16
     f5a:	11 8e       	std	Z+25, r1	; 0x19
     f5c:	12 8e       	std	Z+26, r1	; 0x1a
     f5e:	13 8e       	std	Z+27, r1	; 0x1b
     f60:	14 8e       	std	Z+28, r1	; 0x1c
     f62:	ef ed       	ldi	r30, 0xDF	; 223
     f64:	f1 e0       	ldi	r31, 0x01	; 1
     f66:	88 e0       	ldi	r24, 0x08	; 8
     f68:	81 83       	std	Z+1, r24	; 0x01
     f6a:	82 e0       	ldi	r24, 0x02	; 2
     f6c:	82 83       	std	Z+2, r24	; 0x02
     f6e:	15 82       	std	Z+5, r1	; 0x05
     f70:	80 e2       	ldi	r24, 0x20	; 32
     f72:	86 83       	std	Z+6, r24	; 0x06
     f74:	17 82       	std	Z+7, r1	; 0x07
     f76:	85 e0       	ldi	r24, 0x05	; 5
     f78:	85 87       	std	Z+13, r24	; 0x0d
     f7a:	10 86       	std	Z+8, r1	; 0x08
     f7c:	e5 ed       	ldi	r30, 0xD5	; 213
     f7e:	f1 e0       	ldi	r31, 0x01	; 1
     f80:	80 e2       	ldi	r24, 0x20	; 32
     f82:	98 e0       	ldi	r25, 0x08	; 8
     f84:	a0 e0       	ldi	r26, 0x00	; 0
     f86:	b0 e0       	ldi	r27, 0x00	; 0
     f88:	85 83       	std	Z+5, r24	; 0x05
     f8a:	96 83       	std	Z+6, r25	; 0x06
     f8c:	a7 83       	std	Z+7, r26	; 0x07
     f8e:	b0 87       	std	Z+8, r27	; 0x08
     f90:	81 e0       	ldi	r24, 0x01	; 1
     f92:	81 87       	std	Z+9, r24	; 0x09
     f94:	08 95       	ret

00000f96 <main>:
init():
/home/user/.arduino15/packages/ATTinyCore/hardware/avr/1.5.2/cores/tinymodern/wiring.c:572
  #else
  CLKPR=1<<CLKPCE; //enable change of protected register
  #endif
  CLKPR=1; //prescale by 2 for 4MHz
  #endif
  sei();
     f96:	78 94       	sei
Timer0_SetWaveformGenerationMode():
/home/user/.arduino15/packages/ATTinyCore/hardware/avr/1.5.2/cores/tinymodern/core_timers.h:677
}
timer0_wgm_t;

__attribute__((always_inline)) static inline void Timer0_SetWaveformGenerationMode( timer0_wgm_t wgm )
{
  TCCR0A = (TCCR0A & ~MASK2(WGM01,WGM00)) | (((wgm & B011) >> 0) << WGM00);
     f98:	8b b3       	in	r24, 0x1b	; 27
     f9a:	83 60       	ori	r24, 0x03	; 3
     f9c:	8b bb       	out	0x1b, r24	; 27
/home/user/.arduino15/packages/ATTinyCore/hardware/avr/1.5.2/cores/tinymodern/core_timers.h:678
  TCCR0B = (TCCR0B & ~MASK1(WGM02))       | (((wgm & B100) >> 2) << WGM02);
     f9e:	d3 98       	cbi	0x1a, 3	; 26
Timer0_ClockSelect():
/home/user/.arduino15/packages/ATTinyCore/hardware/avr/1.5.2/cores/tinymodern/core_timers.h:659
}
timer0_cs_t;

__attribute__((always_inline)) static inline void Timer0_ClockSelect( timer0_cs_t cs )
{
  TCCR0B = (TCCR0B & ~MASK3(CS02,CS01,CS00)) | (cs << CS00);
     fa0:	8a b3       	in	r24, 0x1a	; 26
     fa2:	88 7f       	andi	r24, 0xF8	; 248
     fa4:	82 60       	ori	r24, 0x02	; 2
     fa6:	8a bb       	out	0x1a, r24	; 26
Timer0_EnableOverflowInterrupt():
/home/user/.arduino15/packages/ATTinyCore/hardware/avr/1.5.2/cores/tinymodern/core_timers.h:733
  TIMSK |= (1<<OCIE0A);
}

__attribute__((always_inline)) static inline void Timer0_EnableOverflowInterrupt( void )
{
  TIMSK |= (1<<TOIE0);
     fa8:	8a b7       	in	r24, 0x3a	; 58
     faa:	82 60       	ori	r24, 0x02	; 2
     fac:	8a bf       	out	0x3a, r24	; 58
Timer1_ClockSelect():
/home/user/.arduino15/packages/ATTinyCore/hardware/avr/1.5.2/cores/tinymodern/core_timers.h:811
}
timer1_cs_t;

__attribute__((always_inline)) static inline void Timer1_ClockSelect( timer1_cs_t cs )
{
  TCCR1B = (TCCR1B & ~MASK3(CS12,CS11,CS10)) | (cs << CS10);
     fae:	80 91 71 00 	lds	r24, 0x0071	; 0x800071 <__DATA_REGION_ORIGIN__+0x11>
     fb2:	88 7f       	andi	r24, 0xF8	; 248
     fb4:	80 93 71 00 	sts	0x0071, r24	; 0x800071 <__DATA_REGION_ORIGIN__+0x11>
Timer1_SetWaveformGenerationMode():
/home/user/.arduino15/packages/ATTinyCore/hardware/avr/1.5.2/cores/tinymodern/core_timers.h:837
}
timer1_wgm_t;

__attribute__((always_inline)) static inline void Timer1_SetWaveformGenerationMode( timer1_wgm_t wgm )
{
  TCCR1A = (TCCR1A & ~MASK2(WGM11,WGM10)) | (((wgm & B0011) >> 0) << WGM10);
     fb8:	80 91 72 00 	lds	r24, 0x0072	; 0x800072 <__DATA_REGION_ORIGIN__+0x12>
     fbc:	8c 7f       	andi	r24, 0xFC	; 252
     fbe:	81 60       	ori	r24, 0x01	; 1
     fc0:	80 93 72 00 	sts	0x0072, r24	; 0x800072 <__DATA_REGION_ORIGIN__+0x12>
/home/user/.arduino15/packages/ATTinyCore/hardware/avr/1.5.2/cores/tinymodern/core_timers.h:838
  TCCR1B = (TCCR1B & ~MASK2(WGM13,WGM12)) | (((wgm & B1100) >> 2) << WGM12);
     fc4:	80 91 71 00 	lds	r24, 0x0071	; 0x800071 <__DATA_REGION_ORIGIN__+0x11>
     fc8:	87 7e       	andi	r24, 0xE7	; 231
     fca:	80 93 71 00 	sts	0x0071, r24	; 0x800071 <__DATA_REGION_ORIGIN__+0x11>
Timer1_ClockSelect():
/home/user/.arduino15/packages/ATTinyCore/hardware/avr/1.5.2/cores/tinymodern/core_timers.h:811
}
timer1_cs_t;

__attribute__((always_inline)) static inline void Timer1_ClockSelect( timer1_cs_t cs )
{
  TCCR1B = (TCCR1B & ~MASK3(CS12,CS11,CS10)) | (cs << CS10);
     fce:	80 91 71 00 	lds	r24, 0x0071	; 0x800071 <__DATA_REGION_ORIGIN__+0x11>
     fd2:	88 7f       	andi	r24, 0xF8	; 248
     fd4:	82 60       	ori	r24, 0x02	; 2
     fd6:	80 93 71 00 	sts	0x0071, r24	; 0x800071 <__DATA_REGION_ORIGIN__+0x11>
ADC_PrescalerSelect():
/home/user/.arduino15/packages/ATTinyCore/hardware/avr/1.5.2/cores/tinymodern/core_adc.h:89
}
adc_ps_t;

__attribute__((always_inline)) static inline void ADC_PrescalerSelect( adc_ps_t ps )
{
  ADCSRA = (ADCSRA & ~MASK3(ADPS2,ADPS1,ADPS0)) | (ps << ADPS0);
     fda:	83 b1       	in	r24, 0x03	; 3
     fdc:	88 7f       	andi	r24, 0xF8	; 248
     fde:	83 60       	ori	r24, 0x03	; 3
     fe0:	83 b9       	out	0x03, r24	; 3
ADC_Enable():
/home/user/.arduino15/packages/ATTinyCore/hardware/avr/1.5.2/cores/tinymodern/core_adc.h:94
}

__attribute__((always_inline)) static inline void ADC_Enable( void )
{
  ADCSRA |= MASK1( ADEN );
     fe2:	1f 9a       	sbi	0x03, 7	; 3
setup():
/media/user/Data/Documents/AVR/AVR/elevator_altimeter/elevator_altimeter.ino:31
uint8_t log_mode = 0;
uint16_t batt_v = 0;
Alt_Data alt_data;

void setup() {
    pinMode(LED0, OUTPUT);
     fe4:	61 e0       	ldi	r22, 0x01	; 1
     fe6:	8a e0       	ldi	r24, 0x0A	; 10
     fe8:	0e 94 11 02 	call	0x422	; 0x422 <pinMode>
/media/user/Data/Documents/AVR/AVR/elevator_altimeter/elevator_altimeter.ino:32
    pinMode(LED1, OUTPUT);
     fec:	61 e0       	ldi	r22, 0x01	; 1
     fee:	89 e0       	ldi	r24, 0x09	; 9
     ff0:	0e 94 11 02 	call	0x422	; 0x422 <pinMode>
/media/user/Data/Documents/AVR/AVR/elevator_altimeter/elevator_altimeter.ino:33
    pinMode(USER_SW, INPUT_PULLUP);
     ff4:	62 e0       	ldi	r22, 0x02	; 2
     ff6:	8d e0       	ldi	r24, 0x0D	; 13
     ff8:	0e 94 11 02 	call	0x422	; 0x422 <pinMode>
/media/user/Data/Documents/AVR/AVR/elevator_altimeter/elevator_altimeter.ino:34
    pinMode(MPL_INT1, INPUT);
     ffc:	60 e0       	ldi	r22, 0x00	; 0
     ffe:	8b e0       	ldi	r24, 0x0B	; 11
    1000:	0e 94 11 02 	call	0x422	; 0x422 <pinMode>
/media/user/Data/Documents/AVR/AVR/elevator_altimeter/elevator_altimeter.ino:35
    pinMode(NRF_CE, OUTPUT);
    1004:	61 e0       	ldi	r22, 0x01	; 1
    1006:	88 e0       	ldi	r24, 0x08	; 8
    1008:	0e 94 11 02 	call	0x422	; 0x422 <pinMode>
/media/user/Data/Documents/AVR/AVR/elevator_altimeter/elevator_altimeter.ino:36
    pinMode(NRF_SCK, OUTPUT);
    100c:	61 e0       	ldi	r22, 0x01	; 1
    100e:	87 e0       	ldi	r24, 0x07	; 7
    1010:	0e 94 11 02 	call	0x422	; 0x422 <pinMode>
/media/user/Data/Documents/AVR/AVR/elevator_altimeter/elevator_altimeter.ino:37
    pinMode(NRF_MOSI, OUTPUT);
    1014:	61 e0       	ldi	r22, 0x01	; 1
    1016:	83 e0       	ldi	r24, 0x03	; 3
    1018:	0e 94 11 02 	call	0x422	; 0x422 <pinMode>
/media/user/Data/Documents/AVR/AVR/elevator_altimeter/elevator_altimeter.ino:38
    pinMode(NRF_CSN, OUTPUT);
    101c:	61 e0       	ldi	r22, 0x01	; 1
    101e:	82 e0       	ldi	r24, 0x02	; 2
    1020:	0e 94 11 02 	call	0x422	; 0x422 <pinMode>
/media/user/Data/Documents/AVR/AVR/elevator_altimeter/elevator_altimeter.ino:39
    pinMode(NRF_IRQ, INPUT);
    1024:	60 e0       	ldi	r22, 0x00	; 0
    1026:	84 e0       	ldi	r24, 0x04	; 4
    1028:	0e 94 11 02 	call	0x422	; 0x422 <pinMode>
/media/user/Data/Documents/AVR/AVR/elevator_altimeter/elevator_altimeter.ino:40
    pinMode(NRF_MISO, INPUT);
    102c:	60 e0       	ldi	r22, 0x00	; 0
    102e:	86 e0       	ldi	r24, 0x06	; 6
    1030:	0e 94 11 02 	call	0x422	; 0x422 <pinMode>
begin():
/home/user/.arduino15/packages/ATTinyCore/hardware/avr/1.5.2/cores/tinymodern/HardwareSerial.cpp:121

void HardwareSerial::begin(unsigned long baud, byte config)
{
  // Try u2x mode first
  uint16_t baud_setting = (F_CPU / 4 / baud - 1) / 2;
  *_ucsra = 1 << U2X0;
    1034:	e0 91 88 01 	lds	r30, 0x0188	; 0x800188 <Serial+0x10>
    1038:	f0 91 89 01 	lds	r31, 0x0189	; 0x800189 <Serial+0x11>
    103c:	c2 e0       	ldi	r28, 0x02	; 2
    103e:	c0 83       	st	Z, r28
/home/user/.arduino15/packages/ATTinyCore/hardware/avr/1.5.2/cores/tinymodern/HardwareSerial.cpp:135
    *_ucsra = 0;
    baud_setting = (F_CPU / 8 / baud - 1) / 2;
  }

  // assign the baud_setting, a.k.a. ubrr (USART Baud Rate Register)
  *_ubrrh = baud_setting >> 8;
    1040:	e0 91 84 01 	lds	r30, 0x0184	; 0x800184 <Serial+0xc>
    1044:	f0 91 85 01 	lds	r31, 0x0185	; 0x800185 <Serial+0xd>
    1048:	10 82       	st	Z, r1
/home/user/.arduino15/packages/ATTinyCore/hardware/avr/1.5.2/cores/tinymodern/HardwareSerial.cpp:136
  *_ubrrl = baud_setting;
    104a:	e0 91 86 01 	lds	r30, 0x0186	; 0x800186 <Serial+0xe>
    104e:	f0 91 87 01 	lds	r31, 0x0187	; 0x800187 <Serial+0xf>
    1052:	8c e0       	ldi	r24, 0x0C	; 12
    1054:	80 83       	st	Z, r24
/home/user/.arduino15/packages/ATTinyCore/hardware/avr/1.5.2/cores/tinymodern/HardwareSerial.cpp:138

  _written = false;
    1056:	10 92 90 01 	sts	0x0190, r1	; 0x800190 <Serial+0x18>
/home/user/.arduino15/packages/ATTinyCore/hardware/avr/1.5.2/cores/tinymodern/HardwareSerial.cpp:144

  //set the data bits, parity, and stop bits
#if defined(__AVR_ATmega8__)
  config |= 0x80; // select UCSRC register (shared with UBRRH)
#endif
  *_ucsrc = config;
    105a:	e0 91 8c 01 	lds	r30, 0x018C	; 0x80018c <Serial+0x14>
    105e:	f0 91 8d 01 	lds	r31, 0x018D	; 0x80018d <Serial+0x15>
    1062:	86 e0       	ldi	r24, 0x06	; 6
    1064:	80 83       	st	Z, r24
/home/user/.arduino15/packages/ATTinyCore/hardware/avr/1.5.2/cores/tinymodern/HardwareSerial.cpp:146

  sbi(*_ucsrb, RXEN0);
    1066:	e0 91 8a 01 	lds	r30, 0x018A	; 0x80018a <Serial+0x12>
    106a:	f0 91 8b 01 	lds	r31, 0x018B	; 0x80018b <Serial+0x13>
    106e:	80 81       	ld	r24, Z
    1070:	80 61       	ori	r24, 0x10	; 16
    1072:	80 83       	st	Z, r24
/home/user/.arduino15/packages/ATTinyCore/hardware/avr/1.5.2/cores/tinymodern/HardwareSerial.cpp:147
  sbi(*_ucsrb, TXEN0);
    1074:	e0 91 8a 01 	lds	r30, 0x018A	; 0x80018a <Serial+0x12>
    1078:	f0 91 8b 01 	lds	r31, 0x018B	; 0x80018b <Serial+0x13>
    107c:	80 81       	ld	r24, Z
    107e:	88 60       	ori	r24, 0x08	; 8
    1080:	80 83       	st	Z, r24
/home/user/.arduino15/packages/ATTinyCore/hardware/avr/1.5.2/cores/tinymodern/HardwareSerial.cpp:148
  sbi(*_ucsrb, RXCIE0);
    1082:	e0 91 8a 01 	lds	r30, 0x018A	; 0x80018a <Serial+0x12>
    1086:	f0 91 8b 01 	lds	r31, 0x018B	; 0x80018b <Serial+0x13>
    108a:	80 81       	ld	r24, Z
    108c:	80 68       	ori	r24, 0x80	; 128
    108e:	80 83       	st	Z, r24
/home/user/.arduino15/packages/ATTinyCore/hardware/avr/1.5.2/cores/tinymodern/HardwareSerial.cpp:149
  cbi(*_ucsrb, UDRIE0);
    1090:	e0 91 8a 01 	lds	r30, 0x018A	; 0x80018a <Serial+0x12>
    1094:	f0 91 8b 01 	lds	r31, 0x018B	; 0x80018b <Serial+0x13>
    1098:	80 81       	ld	r24, Z
    109a:	8f 7d       	andi	r24, 0xDF	; 223
    109c:	80 83       	st	Z, r24
setup():
/media/user/Data/Documents/AVR/AVR/elevator_altimeter/elevator_altimeter.ino:42
    Serial.begin(9600);
    Serial.println("Reboot");
    109e:	8b e1       	ldi	r24, 0x1B	; 27
    10a0:	91 e0       	ldi	r25, 0x01	; 1
    10a2:	0e 94 9f 05 	call	0xb3e	; 0xb3e <Print::println(char const*) [clone .constprop.24]>
/media/user/Data/Documents/AVR/AVR/elevator_altimeter/elevator_altimeter.ino:43
    delay(50);
    10a6:	62 e3       	ldi	r22, 0x32	; 50
    10a8:	70 e0       	ldi	r23, 0x00	; 0
    10aa:	80 e0       	ldi	r24, 0x00	; 0
    10ac:	90 e0       	ldi	r25, 0x00	; 0
    10ae:	0e 94 8e 02 	call	0x51c	; 0x51c <delay>
begin():
/home/user/.arduino15/packages/ATTinyCore/hardware/avr/1.5.2/libraries/Wire/src/Wire.cpp:364
}

// Public Methods //////////////////////////////////////////////////////////////

void TwoWire::begin(void) {
  BufferIndex = 0;
    10b2:	10 92 75 01 	sts	0x0175, r1	; 0x800175 <TwoWire::BufferIndex>
/home/user/.arduino15/packages/ATTinyCore/hardware/avr/1.5.2/libraries/Wire/src/Wire.cpp:365
  BufferLength = 0;
    10b6:	10 92 76 01 	sts	0x0176, r1	; 0x800176 <TwoWire::BufferLength>
/home/user/.arduino15/packages/ATTinyCore/hardware/avr/1.5.2/libraries/Wire/src/Wire.cpp:367

  transmitting = 0;
    10ba:	10 92 77 01 	sts	0x0177, r1	; 0x800177 <TwoWire::transmitting>
USI_TWI_Master_Initialise():
/home/user/.arduino15/packages/ATTinyCore/hardware/avr/1.5.2/libraries/Wire/src/USI_TWI_Master/USI_TWI_Master.c:61
{
  #ifdef PUE_USI
  PUE_USI |=(1 << PIN_USI_SDA);
  PUE_USI_CL |=(1 << PIN_USI_SCL);
  #endif
  PORT_USI |= (1 << PIN_USI_SDA); // Enable pullup on SDA, to set high as released state.
    10be:	69 9a       	sbi	0x0d, 1	; 13
/home/user/.arduino15/packages/ATTinyCore/hardware/avr/1.5.2/libraries/Wire/src/USI_TWI_Master/USI_TWI_Master.c:62
  PORT_USI_CL |= (1 << PIN_USI_SCL); // Enable pullup on SCL, to set high as released state.
    10c0:	49 9a       	sbi	0x09, 1	; 9
/home/user/.arduino15/packages/ATTinyCore/hardware/avr/1.5.2/libraries/Wire/src/USI_TWI_Master/USI_TWI_Master.c:64

  DDR_USI_CL |= (1 << PIN_USI_SCL); // Enable SCL as output.
    10c2:	41 9a       	sbi	0x08, 1	; 8
/home/user/.arduino15/packages/ATTinyCore/hardware/avr/1.5.2/libraries/Wire/src/USI_TWI_Master/USI_TWI_Master.c:65
  DDR_USI |= (1 << PIN_USI_SDA); // Enable SDA as output.
    10c4:	61 9a       	sbi	0x0c, 1	; 12
/home/user/.arduino15/packages/ATTinyCore/hardware/avr/1.5.2/libraries/Wire/src/USI_TWI_Master/USI_TWI_Master.c:67

  USIDR = 0xFF;                                           // Preload dataregister with "released level" data.
    10c6:	8f ef       	ldi	r24, 0xFF	; 255
    10c8:	8c bd       	out	0x2c, r24	; 44
/home/user/.arduino15/packages/ATTinyCore/hardware/avr/1.5.2/libraries/Wire/src/USI_TWI_Master/USI_TWI_Master.c:68
  USICR = (0 << USISIE) | (0 << USIOIE) |                 // Disable Interrupts.
    10ca:	8a e2       	ldi	r24, 0x2A	; 42
    10cc:	8a bd       	out	0x2a, r24	; 42
/home/user/.arduino15/packages/ATTinyCore/hardware/avr/1.5.2/libraries/Wire/src/USI_TWI_Master/USI_TWI_Master.c:72
          (1 << USIWM1) | (0 << USIWM0) |                 // Set USI in Two-wire mode.
          (1 << USICS1) | (0 << USICS0) | (1 << USICLK) | // Software stobe as counter clock source
          (0 << USITC);
  USISR = (1 << USISIF) | (1 << USIOIF) | (1 << USIPF) | (1 << USIDC) | // Clear flags,
    10ce:	80 ef       	ldi	r24, 0xF0	; 240
    10d0:	8b bd       	out	0x2b, r24	; 43
beginTransmission():
/home/user/.arduino15/packages/ATTinyCore/hardware/avr/1.5.2/libraries/Wire/src/Wire.cpp:471
  BufferIndex = 1; // reserved by slave address
  BufferLength = BufferIndex;
}

void TwoWire::beginTransmission(int address) {
  beginTransmission((uint8_t)address);
    10d2:	80 e6       	ldi	r24, 0x60	; 96
    10d4:	0e 94 b0 00 	call	0x160	; 0x160 <TwoWire::beginTransmission(unsigned char) [clone .constprop.53]>
MPL_init():
/tmp/arduino_build_376412/sketch/Alt.cpp:48


void MPL_init() {
    Wire.begin();
    Wire.beginTransmission(ALTI_ADDR);
    Wire.write(ALTI_REG_CTRL1);
    10d8:	86 e2       	ldi	r24, 0x26	; 38
    10da:	90 e0       	ldi	r25, 0x00	; 0
    10dc:	0e 94 7d 00 	call	0xfa	; 0xfa <TwoWire::write(int) [clone .constprop.58]>
/tmp/arduino_build_376412/sketch/Alt.cpp:49
    Wire.write(0xB8);//0b10111000);//Altimeter mode, OSR=0b111(128,512ms)
    10e0:	88 eb       	ldi	r24, 0xB8	; 184
    10e2:	90 e0       	ldi	r25, 0x00	; 0
    10e4:	0e 94 7d 00 	call	0xfa	; 0xfa <TwoWire::write(int) [clone .constprop.58]>
/tmp/arduino_build_376412/sketch/Alt.cpp:50
    Wire.endTransmission();
    10e8:	0e 94 48 03 	call	0x690	; 0x690 <TwoWire::endTransmission() [clone .constprop.54]>
beginTransmission():
/home/user/.arduino15/packages/ATTinyCore/hardware/avr/1.5.2/libraries/Wire/src/Wire.cpp:471
    10ec:	80 e6       	ldi	r24, 0x60	; 96
    10ee:	0e 94 b0 00 	call	0x160	; 0x160 <TwoWire::beginTransmission(unsigned char) [clone .constprop.53]>
MPL_init():
/tmp/arduino_build_376412/sketch/Alt.cpp:53

    Wire.beginTransmission(ALTI_ADDR);
    Wire.write(ALTI_REG_PT_DATA_CFG);
    10f2:	83 e1       	ldi	r24, 0x13	; 19
    10f4:	90 e0       	ldi	r25, 0x00	; 0
    10f6:	0e 94 7d 00 	call	0xfa	; 0xfa <TwoWire::write(int) [clone .constprop.58]>
/tmp/arduino_build_376412/sketch/Alt.cpp:54
    Wire.write(0x07);//0b00000111);//DREM=PDEFE=TDEFE=1: data ready event on new temperature or altitude readings.
    10fa:	87 e0       	ldi	r24, 0x07	; 7
    10fc:	90 e0       	ldi	r25, 0x00	; 0
    10fe:	0e 94 7d 00 	call	0xfa	; 0xfa <TwoWire::write(int) [clone .constprop.58]>
/tmp/arduino_build_376412/sketch/Alt.cpp:55
    Wire.endTransmission();
    1102:	0e 94 48 03 	call	0x690	; 0x690 <TwoWire::endTransmission() [clone .constprop.54]>
beginTransmission():
/home/user/.arduino15/packages/ATTinyCore/hardware/avr/1.5.2/libraries/Wire/src/Wire.cpp:471
    1106:	80 e6       	ldi	r24, 0x60	; 96
    1108:	0e 94 b0 00 	call	0x160	; 0x160 <TwoWire::beginTransmission(unsigned char) [clone .constprop.53]>
MPL_init():
/tmp/arduino_build_376412/sketch/Alt.cpp:58

    Wire.beginTransmission(ALTI_ADDR);
    Wire.write(ALTI_REG_CTRL4);
    110c:	89 e2       	ldi	r24, 0x29	; 41
    110e:	90 e0       	ldi	r25, 0x00	; 0
    1110:	0e 94 7d 00 	call	0xfa	; 0xfa <TwoWire::write(int) [clone .constprop.58]>
/tmp/arduino_build_376412/sketch/Alt.cpp:59
    Wire.write(0x80);//INT_EN_DRDY=1 enable data ready interrupt
    1114:	80 e8       	ldi	r24, 0x80	; 128
    1116:	90 e0       	ldi	r25, 0x00	; 0
    1118:	0e 94 7d 00 	call	0xfa	; 0xfa <TwoWire::write(int) [clone .constprop.58]>
/tmp/arduino_build_376412/sketch/Alt.cpp:60
    Wire.endTransmission();
    111c:	0e 94 48 03 	call	0x690	; 0x690 <TwoWire::endTransmission() [clone .constprop.54]>
beginTransmission():
/home/user/.arduino15/packages/ATTinyCore/hardware/avr/1.5.2/libraries/Wire/src/Wire.cpp:471
    1120:	80 e6       	ldi	r24, 0x60	; 96
    1122:	0e 94 b0 00 	call	0x160	; 0x160 <TwoWire::beginTransmission(unsigned char) [clone .constprop.53]>
MPL_init():
/tmp/arduino_build_376412/sketch/Alt.cpp:63

    Wire.beginTransmission(ALTI_ADDR);
    Wire.write(ALTI_REG_CTRL5);
    1126:	8a e2       	ldi	r24, 0x2A	; 42
    1128:	90 e0       	ldi	r25, 0x00	; 0
    112a:	0e 94 7d 00 	call	0xfa	; 0xfa <TwoWire::write(int) [clone .constprop.58]>
/tmp/arduino_build_376412/sketch/Alt.cpp:64
    Wire.write(0x80);//INT_EN_DRDY=1 route Data ready interrupt to INT1
    112e:	80 e8       	ldi	r24, 0x80	; 128
    1130:	90 e0       	ldi	r25, 0x00	; 0
    1132:	0e 94 7d 00 	call	0xfa	; 0xfa <TwoWire::write(int) [clone .constprop.58]>
/tmp/arduino_build_376412/sketch/Alt.cpp:65
    Wire.endTransmission();
    1136:	0e 94 48 03 	call	0x690	; 0x690 <TwoWire::endTransmission() [clone .constprop.54]>
beginTransmission():
/home/user/.arduino15/packages/ATTinyCore/hardware/avr/1.5.2/libraries/Wire/src/Wire.cpp:471
    113a:	80 e6       	ldi	r24, 0x60	; 96
    113c:	0e 94 b0 00 	call	0x160	; 0x160 <TwoWire::beginTransmission(unsigned char) [clone .constprop.53]>
MPL_init():
/tmp/arduino_build_376412/sketch/Alt.cpp:68

    Wire.beginTransmission(ALTI_ADDR);
    Wire.write(ALTI_REG_CTRL1);
    1140:	86 e2       	ldi	r24, 0x26	; 38
    1142:	90 e0       	ldi	r25, 0x00	; 0
    1144:	0e 94 7d 00 	call	0xfa	; 0xfa <TwoWire::write(int) [clone .constprop.58]>
/tmp/arduino_build_376412/sketch/Alt.cpp:69
    Wire.write(0xB9);//0b10111001);//Altimeter mode, OSR=0b111(128,512ms), Active
    1148:	89 eb       	ldi	r24, 0xB9	; 185
    114a:	90 e0       	ldi	r25, 0x00	; 0
    114c:	0e 94 7d 00 	call	0xfa	; 0xfa <TwoWire::write(int) [clone .constprop.58]>
/tmp/arduino_build_376412/sketch/Alt.cpp:70
    Wire.endTransmission();
    1150:	0e 94 48 03 	call	0x690	; 0x690 <TwoWire::endTransmission() [clone .constprop.54]>
setup():
/media/user/Data/Documents/AVR/AVR/elevator_altimeter/elevator_altimeter.ino:46
    MPL_init();

    MCUCR = (1 << ISC01); //Interrupt on falling edge of INTO
    1154:	c6 bf       	out	0x36, r28	; 54
/media/user/Data/Documents/AVR/AVR/elevator_altimeter/elevator_altimeter.ino:47
    GIMSK |= (1 << PCIE2) | (1 << INT0);
    1156:	8c b7       	in	r24, 0x3c	; 60
    1158:	80 66       	ori	r24, 0x60	; 96
    115a:	8c bf       	out	0x3c, r24	; 60
/media/user/Data/Documents/AVR/AVR/elevator_altimeter/elevator_altimeter.ino:48
    PCMSK2 |= (1 << PCINT12);
    115c:	89 b5       	in	r24, 0x29	; 41
    115e:	81 60       	ori	r24, 0x01	; 1
    1160:	89 bd       	out	0x29, r24	; 41
analogReference():
/home/user/.arduino15/packages/ATTinyCore/hardware/avr/1.5.2/cores/tinymodern/wiring_analog.c:44
{
  // can't actually set the register here because the default setting
  // will connect AVCC and the AREF pin, which would cause a short if
  // there's something connected to AREF.
  // fix? Validate the mode?
  analog_reference = mode;
    1162:	10 92 6f 01 	sts	0x016F, r1	; 0x80016f <analog_reference>
begin():
/media/user/Data/Documents/AVR/AVR/libraries/RF24/RF24.cpp:613
	ce(LOW);
	csn(HIGH);
	delay(200);
  #else
    // Initialize pins
    if (ce_pin != csn_pin) pinMode(ce_pin,OUTPUT);  
    1166:	80 91 e0 01 	lds	r24, 0x01E0	; 0x8001e0 <radio+0x1>
    116a:	90 91 e1 01 	lds	r25, 0x01E1	; 0x8001e1 <radio+0x2>
    116e:	89 17       	cp	r24, r25
    1170:	19 f0       	breq	.+6      	; 0x1178 <main+0x1e2>
    1172:	61 e0       	ldi	r22, 0x01	; 1
    1174:	0e 94 11 02 	call	0x422	; 0x422 <pinMode>
/media/user/Data/Documents/AVR/AVR/libraries/RF24/RF24.cpp:616
  
    #if ! defined(LITTLEWIRE)
      if (ce_pin != csn_pin)
    1178:	80 91 e1 01 	lds	r24, 0x01E1	; 0x8001e1 <radio+0x2>
    117c:	90 91 e0 01 	lds	r25, 0x01E0	; 0x8001e0 <radio+0x1>
    1180:	98 17       	cp	r25, r24
    1182:	19 f0       	breq	.+6      	; 0x118a <main+0x1f4>
/media/user/Data/Documents/AVR/AVR/libraries/RF24/RF24.cpp:618
    #endif
        pinMode(csn_pin,OUTPUT);
    1184:	61 e0       	ldi	r22, 0x01	; 1
    1186:	0e 94 11 02 	call	0x422	; 0x422 <pinMode>
fastBitWriteSafe():
/media/user/Data/Documents/AVR/AVR/libraries/DigitalIO/src/DigitalPin.h:115
    118a:	82 98       	cbi	0x10, 2	; 16
    118c:	8a 98       	cbi	0x11, 2	; 17
    118e:	8a 98       	cbi	0x11, 2	; 17
/media/user/Data/Documents/AVR/AVR/libraries/DigitalIO/src/DigitalPin.h:113
  if (address > reinterpret_cast<uint8_t*>(0X3F)) {
    s = SREG;
    cli();
  }
  if (level) {
    *address |= mask;
    1190:	85 9a       	sbi	0x10, 5	; 16
    1192:	8d 9a       	sbi	0x11, 5	; 17
    1194:	81 9a       	sbi	0x10, 1	; 16
/media/user/Data/Documents/AVR/AVR/libraries/DigitalIO/src/DigitalPin.h:115
  } else {
    *address &= ~mask;
    1196:	89 98       	cbi	0x11, 1	; 17
ce():
/media/user/Data/Documents/AVR/AVR/libraries/RF24/RF24.cpp:63
/****************************************************************************/

void RF24::ce(bool level)
{
  //Allow for 3-pin use on ATTiny
  if (ce_pin != csn_pin) digitalWrite(ce_pin,level);
    1198:	80 91 e0 01 	lds	r24, 0x01E0	; 0x8001e0 <radio+0x1>
    119c:	90 91 e1 01 	lds	r25, 0x01E1	; 0x8001e1 <radio+0x2>
    11a0:	89 17       	cp	r24, r25
    11a2:	19 f0       	breq	.+6      	; 0x11aa <main+0x214>
    11a4:	60 e0       	ldi	r22, 0x00	; 0
    11a6:	0e 94 bd 01 	call	0x37a	; 0x37a <digitalWrite>
csn():
/media/user/Data/Documents/AVR/AVR/libraries/RF24/RF24.cpp:52
      if(!mode)
	    _SPI.chipSelect(csn_pin);
#endif

#if !defined (RF24_LINUX)
	digitalWrite(csn_pin,mode);
    11aa:	61 e0       	ldi	r22, 0x01	; 1
    11ac:	80 91 e1 01 	lds	r24, 0x01E1	; 0x8001e1 <radio+0x2>
    11b0:	0e 94 bd 01 	call	0x37a	; 0x37a <digitalWrite>
begin():
/media/user/Data/Documents/AVR/AVR/libraries/RF24/RF24.cpp:634
  // This is actually only required following power up but some settling time also appears to
  // be required after resets too. For full coverage, we'll always assume the worst.
  // Enabling 16b CRC is by far the most obvious case if the wrong timing is used - or skipped.
  // Technically we require 4.5ms + 14us as a worst case. We'll just call it 5ms for good measure.
  // WARNING: Delay is based on P-variant whereby non-P *may* require different timing.
  delay( 5 ) ;
    11b4:	65 e0       	ldi	r22, 0x05	; 5
    11b6:	70 e0       	ldi	r23, 0x00	; 0
    11b8:	80 e0       	ldi	r24, 0x00	; 0
    11ba:	90 e0       	ldi	r25, 0x00	; 0
    11bc:	0e 94 8e 02 	call	0x51c	; 0x51c <delay>
/media/user/Data/Documents/AVR/AVR/libraries/RF24/RF24.cpp:637

  // Reset NRF_CONFIG and enable 16-bit CRC.
  write_register( NRF_CONFIG, 0b00001100 ) ;
    11c0:	6c e0       	ldi	r22, 0x0C	; 12
    11c2:	80 e0       	ldi	r24, 0x00	; 0
    11c4:	0e 94 c6 03 	call	0x78c	; 0x78c <RF24::write_register(unsigned char, unsigned char) [clone .constprop.35]>
setRetries():
/media/user/Data/Documents/AVR/AVR/libraries/RF24/RF24.cpp:1533
}

/****************************************************************************/
void RF24::setRetries(uint8_t delay, uint8_t count)
{
 write_register(SETUP_RETR,(delay&0xf)<<ARD | (count&0xf)<<ARC);
    11c8:	6f e5       	ldi	r22, 0x5F	; 95
    11ca:	84 e0       	ldi	r24, 0x04	; 4
    11cc:	0e 94 c6 03 	call	0x78c	; 0x78c <RF24::write_register(unsigned char, unsigned char) [clone .constprop.35]>
begin():
/media/user/Data/Documents/AVR/AVR/libraries/RF24/RF24.cpp:649
  // Reset value is MAX
  //setPALevel( RF24_PA_MAX ) ;

  // check for connected module and if this is a p nRF24l01 variant
  //
  if( setDataRate( RF24_250KBPS ) )
    11d0:	82 e0       	ldi	r24, 0x02	; 2
    11d2:	90 e0       	ldi	r25, 0x00	; 0
    11d4:	0e 94 66 05 	call	0xacc	; 0xacc <RF24::setDataRate(rf24_datarate_e) [clone .constprop.17]>
    11d8:	88 23       	and	r24, r24
    11da:	19 f0       	breq	.+6      	; 0x11e2 <main+0x24c>
/media/user/Data/Documents/AVR/AVR/libraries/RF24/RF24.cpp:651
  {
    p_variant = true ;
    11dc:	81 e0       	ldi	r24, 0x01	; 1
    11de:	80 93 e4 01 	sts	0x01E4, r24	; 0x8001e4 <radio+0x5>
/media/user/Data/Documents/AVR/AVR/libraries/RF24/RF24.cpp:653
  }
  setup = read_register(RF_SETUP);
    11e2:	86 e0       	ldi	r24, 0x06	; 6
    11e4:	0e 94 01 05 	call	0xa02	; 0xa02 <RF24::read_register(unsigned char) [clone .constprop.18]>
/media/user/Data/Documents/AVR/AVR/libraries/RF24/RF24.cpp:661
    p_variant = true ;
  }*/
  
  // Then set the data rate to the slowest (and most reliable) speed supported by all
  // hardware.
  setDataRate( RF24_1MBPS ) ;
    11e8:	90 e0       	ldi	r25, 0x00	; 0
    11ea:	80 e0       	ldi	r24, 0x00	; 0
    11ec:	0e 94 66 05 	call	0xacc	; 0xacc <RF24::setDataRate(rf24_datarate_e) [clone .constprop.17]>
toggle_features():
/media/user/Data/Documents/AVR/AVR/libraries/RF24/RF24.cpp:1227

/****************************************************************************/

void RF24::toggle_features(void)
{
    beginTransaction();
    11f0:	0e 94 6e 03 	call	0x6dc	; 0x6dc <RF24::beginTransaction() [clone .constprop.38]>
fastBitWriteSafe():
/media/user/Data/Documents/AVR/AVR/libraries/DigitalIO/src/DigitalPin.h:115
    11f4:	8d 98       	cbi	0x11, 5	; 17
/media/user/Data/Documents/AVR/AVR/libraries/DigitalIO/src/DigitalPin.h:113
  if (address > reinterpret_cast<uint8_t*>(0X3F)) {
    s = SREG;
    cli();
  }
  if (level) {
    *address |= mask;
    11f6:	89 9a       	sbi	0x11, 1	; 17
fastDigitalRead():
/media/user/Data/Documents/AVR/AVR/libraries/DigitalIO/src/DigitalPin.h:128
 * @param[in] pin Arduino pin number
 * @return value read
 */
static inline __attribute__((always_inline))
bool fastDigitalRead(uint8_t pin) {
  return *pinReg(pin) & pinMask(pin);
    11f8:	8f b1       	in	r24, 0x0f	; 15
fastBitWriteSafe():
/media/user/Data/Documents/AVR/AVR/libraries/DigitalIO/src/DigitalPin.h:115
    cli();
  }
  if (level) {
    *address |= mask;
  } else {
    *address &= ~mask;
    11fa:	89 98       	cbi	0x11, 1	; 17
/media/user/Data/Documents/AVR/AVR/libraries/DigitalIO/src/DigitalPin.h:113
  if (address > reinterpret_cast<uint8_t*>(0X3F)) {
    s = SREG;
    cli();
  }
  if (level) {
    *address |= mask;
    11fc:	8d 9a       	sbi	0x11, 5	; 17
    11fe:	89 9a       	sbi	0x11, 1	; 17
fastDigitalRead():
/media/user/Data/Documents/AVR/AVR/libraries/DigitalIO/src/DigitalPin.h:128
 * @param[in] pin Arduino pin number
 * @return value read
 */
static inline __attribute__((always_inline))
bool fastDigitalRead(uint8_t pin) {
  return *pinReg(pin) & pinMask(pin);
    1200:	8f b1       	in	r24, 0x0f	; 15
fastBitWriteSafe():
/media/user/Data/Documents/AVR/AVR/libraries/DigitalIO/src/DigitalPin.h:115
    cli();
  }
  if (level) {
    *address |= mask;
  } else {
    *address &= ~mask;
    1202:	89 98       	cbi	0x11, 1	; 17
    1204:	8d 98       	cbi	0x11, 5	; 17
/media/user/Data/Documents/AVR/AVR/libraries/DigitalIO/src/DigitalPin.h:113
  if (address > reinterpret_cast<uint8_t*>(0X3F)) {
    s = SREG;
    cli();
  }
  if (level) {
    *address |= mask;
    1206:	89 9a       	sbi	0x11, 1	; 17
fastDigitalRead():
/media/user/Data/Documents/AVR/AVR/libraries/DigitalIO/src/DigitalPin.h:128
 * @param[in] pin Arduino pin number
 * @return value read
 */
static inline __attribute__((always_inline))
bool fastDigitalRead(uint8_t pin) {
  return *pinReg(pin) & pinMask(pin);
    1208:	8f b1       	in	r24, 0x0f	; 15
fastBitWriteSafe():
/media/user/Data/Documents/AVR/AVR/libraries/DigitalIO/src/DigitalPin.h:115
    cli();
  }
  if (level) {
    *address |= mask;
  } else {
    *address &= ~mask;
    120a:	89 98       	cbi	0x11, 1	; 17
/media/user/Data/Documents/AVR/AVR/libraries/DigitalIO/src/DigitalPin.h:113
  if (address > reinterpret_cast<uint8_t*>(0X3F)) {
    s = SREG;
    cli();
  }
  if (level) {
    *address |= mask;
    120c:	8d 9a       	sbi	0x11, 5	; 17
    120e:	89 9a       	sbi	0x11, 1	; 17
fastDigitalRead():
/media/user/Data/Documents/AVR/AVR/libraries/DigitalIO/src/DigitalPin.h:128
 * @param[in] pin Arduino pin number
 * @return value read
 */
static inline __attribute__((always_inline))
bool fastDigitalRead(uint8_t pin) {
  return *pinReg(pin) & pinMask(pin);
    1210:	8f b1       	in	r24, 0x0f	; 15
fastBitWriteSafe():
/media/user/Data/Documents/AVR/AVR/libraries/DigitalIO/src/DigitalPin.h:115
    cli();
  }
  if (level) {
    *address |= mask;
  } else {
    *address &= ~mask;
    1212:	89 98       	cbi	0x11, 1	; 17
    1214:	8d 98       	cbi	0x11, 5	; 17
/media/user/Data/Documents/AVR/AVR/libraries/DigitalIO/src/DigitalPin.h:113
  if (address > reinterpret_cast<uint8_t*>(0X3F)) {
    s = SREG;
    cli();
  }
  if (level) {
    *address |= mask;
    1216:	89 9a       	sbi	0x11, 1	; 17
fastDigitalRead():
/media/user/Data/Documents/AVR/AVR/libraries/DigitalIO/src/DigitalPin.h:128
 * @param[in] pin Arduino pin number
 * @return value read
 */
static inline __attribute__((always_inline))
bool fastDigitalRead(uint8_t pin) {
  return *pinReg(pin) & pinMask(pin);
    1218:	8f b1       	in	r24, 0x0f	; 15
fastBitWriteSafe():
/media/user/Data/Documents/AVR/AVR/libraries/DigitalIO/src/DigitalPin.h:115
    cli();
  }
  if (level) {
    *address |= mask;
  } else {
    *address &= ~mask;
    121a:	89 98       	cbi	0x11, 1	; 17
    121c:	8d 98       	cbi	0x11, 5	; 17
/media/user/Data/Documents/AVR/AVR/libraries/DigitalIO/src/DigitalPin.h:113
  if (address > reinterpret_cast<uint8_t*>(0X3F)) {
    s = SREG;
    cli();
  }
  if (level) {
    *address |= mask;
    121e:	89 9a       	sbi	0x11, 1	; 17
fastDigitalRead():
/media/user/Data/Documents/AVR/AVR/libraries/DigitalIO/src/DigitalPin.h:128
 * @param[in] pin Arduino pin number
 * @return value read
 */
static inline __attribute__((always_inline))
bool fastDigitalRead(uint8_t pin) {
  return *pinReg(pin) & pinMask(pin);
    1220:	8f b1       	in	r24, 0x0f	; 15
fastBitWriteSafe():
/media/user/Data/Documents/AVR/AVR/libraries/DigitalIO/src/DigitalPin.h:115
    cli();
  }
  if (level) {
    *address |= mask;
  } else {
    *address &= ~mask;
    1222:	89 98       	cbi	0x11, 1	; 17
    1224:	8d 98       	cbi	0x11, 5	; 17
/media/user/Data/Documents/AVR/AVR/libraries/DigitalIO/src/DigitalPin.h:113
  if (address > reinterpret_cast<uint8_t*>(0X3F)) {
    s = SREG;
    cli();
  }
  if (level) {
    *address |= mask;
    1226:	89 9a       	sbi	0x11, 1	; 17
fastDigitalRead():
/media/user/Data/Documents/AVR/AVR/libraries/DigitalIO/src/DigitalPin.h:128
 * @param[in] pin Arduino pin number
 * @return value read
 */
static inline __attribute__((always_inline))
bool fastDigitalRead(uint8_t pin) {
  return *pinReg(pin) & pinMask(pin);
    1228:	8f b1       	in	r24, 0x0f	; 15
fastBitWriteSafe():
/media/user/Data/Documents/AVR/AVR/libraries/DigitalIO/src/DigitalPin.h:115
    cli();
  }
  if (level) {
    *address |= mask;
  } else {
    *address &= ~mask;
    122a:	89 98       	cbi	0x11, 1	; 17
    122c:	8d 98       	cbi	0x11, 5	; 17
/media/user/Data/Documents/AVR/AVR/libraries/DigitalIO/src/DigitalPin.h:113
  if (address > reinterpret_cast<uint8_t*>(0X3F)) {
    s = SREG;
    cli();
  }
  if (level) {
    *address |= mask;
    122e:	89 9a       	sbi	0x11, 1	; 17
fastDigitalRead():
/media/user/Data/Documents/AVR/AVR/libraries/DigitalIO/src/DigitalPin.h:128
 * @param[in] pin Arduino pin number
 * @return value read
 */
static inline __attribute__((always_inline))
bool fastDigitalRead(uint8_t pin) {
  return *pinReg(pin) & pinMask(pin);
    1230:	8f b1       	in	r24, 0x0f	; 15
fastBitWriteSafe():
/media/user/Data/Documents/AVR/AVR/libraries/DigitalIO/src/DigitalPin.h:115
    cli();
  }
  if (level) {
    *address |= mask;
  } else {
    *address &= ~mask;
    1232:	89 98       	cbi	0x11, 1	; 17
    1234:	8d 98       	cbi	0x11, 5	; 17
/media/user/Data/Documents/AVR/AVR/libraries/DigitalIO/src/DigitalPin.h:113
  if (address > reinterpret_cast<uint8_t*>(0X3F)) {
    s = SREG;
    cli();
  }
  if (level) {
    *address |= mask;
    1236:	89 9a       	sbi	0x11, 1	; 17
fastDigitalRead():
/media/user/Data/Documents/AVR/AVR/libraries/DigitalIO/src/DigitalPin.h:128
 * @param[in] pin Arduino pin number
 * @return value read
 */
static inline __attribute__((always_inline))
bool fastDigitalRead(uint8_t pin) {
  return *pinReg(pin) & pinMask(pin);
    1238:	8f b1       	in	r24, 0x0f	; 15
fastBitWriteSafe():
/media/user/Data/Documents/AVR/AVR/libraries/DigitalIO/src/DigitalPin.h:115
    cli();
  }
  if (level) {
    *address |= mask;
  } else {
    *address &= ~mask;
    123a:	89 98       	cbi	0x11, 1	; 17
/media/user/Data/Documents/AVR/AVR/libraries/DigitalIO/src/DigitalPin.h:113
  if (address > reinterpret_cast<uint8_t*>(0X3F)) {
    s = SREG;
    cli();
  }
  if (level) {
    *address |= mask;
    123c:	8d 9a       	sbi	0x11, 5	; 17
    123e:	89 9a       	sbi	0x11, 1	; 17
fastDigitalRead():
/media/user/Data/Documents/AVR/AVR/libraries/DigitalIO/src/DigitalPin.h:128
 * @param[in] pin Arduino pin number
 * @return value read
 */
static inline __attribute__((always_inline))
bool fastDigitalRead(uint8_t pin) {
  return *pinReg(pin) & pinMask(pin);
    1240:	8f b1       	in	r24, 0x0f	; 15
fastBitWriteSafe():
/media/user/Data/Documents/AVR/AVR/libraries/DigitalIO/src/DigitalPin.h:115
    cli();
  }
  if (level) {
    *address |= mask;
  } else {
    *address &= ~mask;
    1242:	89 98       	cbi	0x11, 1	; 17
/media/user/Data/Documents/AVR/AVR/libraries/DigitalIO/src/DigitalPin.h:113
  if (address > reinterpret_cast<uint8_t*>(0X3F)) {
    s = SREG;
    cli();
  }
  if (level) {
    *address |= mask;
    1244:	8d 9a       	sbi	0x11, 5	; 17
    1246:	89 9a       	sbi	0x11, 1	; 17
fastDigitalRead():
/media/user/Data/Documents/AVR/AVR/libraries/DigitalIO/src/DigitalPin.h:128
 * @param[in] pin Arduino pin number
 * @return value read
 */
static inline __attribute__((always_inline))
bool fastDigitalRead(uint8_t pin) {
  return *pinReg(pin) & pinMask(pin);
    1248:	8f b1       	in	r24, 0x0f	; 15
fastBitWriteSafe():
/media/user/Data/Documents/AVR/AVR/libraries/DigitalIO/src/DigitalPin.h:115
    cli();
  }
  if (level) {
    *address |= mask;
  } else {
    *address &= ~mask;
    124a:	89 98       	cbi	0x11, 1	; 17
/media/user/Data/Documents/AVR/AVR/libraries/DigitalIO/src/DigitalPin.h:113
  if (address > reinterpret_cast<uint8_t*>(0X3F)) {
    s = SREG;
    cli();
  }
  if (level) {
    *address |= mask;
    124c:	8d 9a       	sbi	0x11, 5	; 17
    124e:	89 9a       	sbi	0x11, 1	; 17
fastDigitalRead():
/media/user/Data/Documents/AVR/AVR/libraries/DigitalIO/src/DigitalPin.h:128
 * @param[in] pin Arduino pin number
 * @return value read
 */
static inline __attribute__((always_inline))
bool fastDigitalRead(uint8_t pin) {
  return *pinReg(pin) & pinMask(pin);
    1250:	8f b1       	in	r24, 0x0f	; 15
fastBitWriteSafe():
/media/user/Data/Documents/AVR/AVR/libraries/DigitalIO/src/DigitalPin.h:115
    cli();
  }
  if (level) {
    *address |= mask;
  } else {
    *address &= ~mask;
    1252:	89 98       	cbi	0x11, 1	; 17
    1254:	8d 98       	cbi	0x11, 5	; 17
/media/user/Data/Documents/AVR/AVR/libraries/DigitalIO/src/DigitalPin.h:113
  if (address > reinterpret_cast<uint8_t*>(0X3F)) {
    s = SREG;
    cli();
  }
  if (level) {
    *address |= mask;
    1256:	89 9a       	sbi	0x11, 1	; 17
fastDigitalRead():
/media/user/Data/Documents/AVR/AVR/libraries/DigitalIO/src/DigitalPin.h:128
 * @param[in] pin Arduino pin number
 * @return value read
 */
static inline __attribute__((always_inline))
bool fastDigitalRead(uint8_t pin) {
  return *pinReg(pin) & pinMask(pin);
    1258:	8f b1       	in	r24, 0x0f	; 15
fastBitWriteSafe():
/media/user/Data/Documents/AVR/AVR/libraries/DigitalIO/src/DigitalPin.h:115
    cli();
  }
  if (level) {
    *address |= mask;
  } else {
    *address &= ~mask;
    125a:	89 98       	cbi	0x11, 1	; 17
    125c:	8d 98       	cbi	0x11, 5	; 17
/media/user/Data/Documents/AVR/AVR/libraries/DigitalIO/src/DigitalPin.h:113
  if (address > reinterpret_cast<uint8_t*>(0X3F)) {
    s = SREG;
    cli();
  }
  if (level) {
    *address |= mask;
    125e:	89 9a       	sbi	0x11, 1	; 17
fastDigitalRead():
/media/user/Data/Documents/AVR/AVR/libraries/DigitalIO/src/DigitalPin.h:128
 * @param[in] pin Arduino pin number
 * @return value read
 */
static inline __attribute__((always_inline))
bool fastDigitalRead(uint8_t pin) {
  return *pinReg(pin) & pinMask(pin);
    1260:	8f b1       	in	r24, 0x0f	; 15
fastBitWriteSafe():
/media/user/Data/Documents/AVR/AVR/libraries/DigitalIO/src/DigitalPin.h:115
    cli();
  }
  if (level) {
    *address |= mask;
  } else {
    *address &= ~mask;
    1262:	89 98       	cbi	0x11, 1	; 17
/media/user/Data/Documents/AVR/AVR/libraries/DigitalIO/src/DigitalPin.h:113
  if (address > reinterpret_cast<uint8_t*>(0X3F)) {
    s = SREG;
    cli();
  }
  if (level) {
    *address |= mask;
    1264:	8d 9a       	sbi	0x11, 5	; 17
    1266:	89 9a       	sbi	0x11, 1	; 17
fastDigitalRead():
/media/user/Data/Documents/AVR/AVR/libraries/DigitalIO/src/DigitalPin.h:128
 * @param[in] pin Arduino pin number
 * @return value read
 */
static inline __attribute__((always_inline))
bool fastDigitalRead(uint8_t pin) {
  return *pinReg(pin) & pinMask(pin);
    1268:	8f b1       	in	r24, 0x0f	; 15
fastBitWriteSafe():
/media/user/Data/Documents/AVR/AVR/libraries/DigitalIO/src/DigitalPin.h:115
    cli();
  }
  if (level) {
    *address |= mask;
  } else {
    *address &= ~mask;
    126a:	89 98       	cbi	0x11, 1	; 17
/media/user/Data/Documents/AVR/AVR/libraries/DigitalIO/src/DigitalPin.h:113
  if (address > reinterpret_cast<uint8_t*>(0X3F)) {
    s = SREG;
    cli();
  }
  if (level) {
    *address |= mask;
    126c:	8d 9a       	sbi	0x11, 5	; 17
    126e:	89 9a       	sbi	0x11, 1	; 17
fastDigitalRead():
/media/user/Data/Documents/AVR/AVR/libraries/DigitalIO/src/DigitalPin.h:128
 * @param[in] pin Arduino pin number
 * @return value read
 */
static inline __attribute__((always_inline))
bool fastDigitalRead(uint8_t pin) {
  return *pinReg(pin) & pinMask(pin);
    1270:	8f b1       	in	r24, 0x0f	; 15
fastBitWriteSafe():
/media/user/Data/Documents/AVR/AVR/libraries/DigitalIO/src/DigitalPin.h:115
    cli();
  }
  if (level) {
    *address |= mask;
  } else {
    *address &= ~mask;
    1272:	89 98       	cbi	0x11, 1	; 17
toggle_features():
/media/user/Data/Documents/AVR/AVR/libraries/RF24/RF24.cpp:1230
	_SPI.transfer( ACTIVATE );
    _SPI.transfer( 0x73 );
	endTransaction();
    1274:	0e 94 69 03 	call	0x6d2	; 0x6d2 <RF24::endTransaction() [clone .constprop.39]>
begin():
/media/user/Data/Documents/AVR/AVR/libraries/RF24/RF24.cpp:668
  // Initialize CRC and request 2-byte (16bit) CRC
  //setCRCLength( RF24_CRC_16 ) ;

  // Disable dynamic payloads, to match dynamic_payloads_enabled setting - Reset value is 0
  toggle_features();
  write_register(FEATURE,0 );
    1278:	60 e0       	ldi	r22, 0x00	; 0
    127a:	8d e1       	ldi	r24, 0x1D	; 29
    127c:	0e 94 c6 03 	call	0x78c	; 0x78c <RF24::write_register(unsigned char, unsigned char) [clone .constprop.35]>
/media/user/Data/Documents/AVR/AVR/libraries/RF24/RF24.cpp:669
  write_register(DYNPD,0);
    1280:	60 e0       	ldi	r22, 0x00	; 0
    1282:	8c e1       	ldi	r24, 0x1C	; 28
    1284:	0e 94 c6 03 	call	0x78c	; 0x78c <RF24::write_register(unsigned char, unsigned char) [clone .constprop.35]>
/media/user/Data/Documents/AVR/AVR/libraries/RF24/RF24.cpp:673

  // Reset current status
  // Notice reset and flush is the last thing we do
  write_register(NRF_STATUS,_BV(RX_DR) | _BV(TX_DS) | _BV(MAX_RT) );
    1288:	60 e7       	ldi	r22, 0x70	; 112
    128a:	87 e0       	ldi	r24, 0x07	; 7
    128c:	0e 94 c6 03 	call	0x78c	; 0x78c <RF24::write_register(unsigned char, unsigned char) [clone .constprop.35]>
setChannel():
/media/user/Data/Documents/AVR/AVR/libraries/RF24/RF24.cpp:440
/****************************************************************************/

void RF24::setChannel(uint8_t channel)
{
  const uint8_t max_channel = 125;
  write_register(RF_CH,rf24_min(channel,max_channel));
    1290:	6c e4       	ldi	r22, 0x4C	; 76
    1292:	85 e0       	ldi	r24, 0x05	; 5
    1294:	0e 94 c6 03 	call	0x78c	; 0x78c <RF24::write_register(unsigned char, unsigned char) [clone .constprop.35]>
flush_rx():
/media/user/Data/Documents/AVR/AVR/libraries/RF24/RF24.cpp:321

/****************************************************************************/

uint8_t RF24::flush_rx(void)
{
  return spiTrans( FLUSH_RX );
    1298:	82 ee       	ldi	r24, 0xE2	; 226
    129a:	0e 94 73 03 	call	0x6e6	; 0x6e6 <RF24::spiTrans(unsigned char) [clone .constprop.37]>
flush_tx():
/media/user/Data/Documents/AVR/AVR/libraries/RF24/RF24.cpp:328

/****************************************************************************/

uint8_t RF24::flush_tx(void)
{
  return spiTrans( FLUSH_TX );
    129e:	81 ee       	ldi	r24, 0xE1	; 225
    12a0:	0e 94 73 03 	call	0x6e6	; 0x6e6 <RF24::spiTrans(unsigned char) [clone .constprop.37]>
powerUp():
/media/user/Data/Documents/AVR/AVR/libraries/RF24/RF24.cpp:766
/****************************************************************************/

//Power up now. Radio will not power down unless instructed by MCU for config changes etc.
void RF24::powerUp(void)
{
   uint8_t cfg = read_register(NRF_CONFIG);
    12a4:	80 e0       	ldi	r24, 0x00	; 0
    12a6:	0e 94 01 05 	call	0xa02	; 0xa02 <RF24::read_register(unsigned char) [clone .constprop.18]>
/media/user/Data/Documents/AVR/AVR/libraries/RF24/RF24.cpp:769

   // if not powered up then power up and wait for the radio to initialize
   if (!(cfg & _BV(PWR_UP))){
    12aa:	81 fd       	sbrc	r24, 1
    12ac:	0b c0       	rjmp	.+22     	; 0x12c4 <main+0x32e>
/media/user/Data/Documents/AVR/AVR/libraries/RF24/RF24.cpp:770
      write_register(NRF_CONFIG, cfg | _BV(PWR_UP));
    12ae:	68 2f       	mov	r22, r24
    12b0:	62 60       	ori	r22, 0x02	; 2
    12b2:	80 e0       	ldi	r24, 0x00	; 0
    12b4:	0e 94 c6 03 	call	0x78c	; 0x78c <RF24::write_register(unsigned char, unsigned char) [clone .constprop.35]>
/media/user/Data/Documents/AVR/AVR/libraries/RF24/RF24.cpp:775

      // For nRF24L01+ to go from power down mode to TX or RX mode it must first pass through stand-by mode.
	  // There must be a delay of Tpd2stby (see Table 16.) after the nRF24L01+ leaves power down mode before
	  // the CEis set high. - Tpd2stby can be up to 5ms per the 1.0 datasheet
      delay(5);
    12b8:	65 e0       	ldi	r22, 0x05	; 5
    12ba:	70 e0       	ldi	r23, 0x00	; 0
    12bc:	80 e0       	ldi	r24, 0x00	; 0
    12be:	90 e0       	ldi	r25, 0x00	; 0
    12c0:	0e 94 8e 02 	call	0x51c	; 0x51c <delay>
begin():
/media/user/Data/Documents/AVR/AVR/libraries/RF24/RF24.cpp:688

  powerUp(); //Power up by default when begin() is called

  // Enable PTX, do not write CE high so radio will remain in standby I mode ( 130us max to transition to RX or TX instead of 1500us from powerUp )
  // PTX should use only 22uA of power
  write_register(NRF_CONFIG, ( read_register(NRF_CONFIG) ) & ~_BV(PRIM_RX) );
    12c4:	80 e0       	ldi	r24, 0x00	; 0
    12c6:	0e 94 01 05 	call	0xa02	; 0xa02 <RF24::read_register(unsigned char) [clone .constprop.18]>
    12ca:	68 2f       	mov	r22, r24
    12cc:	6e 7f       	andi	r22, 0xFE	; 254
    12ce:	80 e0       	ldi	r24, 0x00	; 0
    12d0:	0e 94 c6 03 	call	0x78c	; 0x78c <RF24::write_register(unsigned char, unsigned char) [clone .constprop.35]>
setup():
/media/user/Data/Documents/AVR/AVR/elevator_altimeter/elevator_altimeter.ino:52
    analogReference(DEFAULT);

    radio.begin();
    radio.setDataRate( RF24_250KBPS );
    12d4:	82 e0       	ldi	r24, 0x02	; 2
    12d6:	90 e0       	ldi	r25, 0x00	; 0
    12d8:	0e 94 66 05 	call	0xacc	; 0xacc <RF24::setDataRate(rf24_datarate_e) [clone .constprop.17]>
setRetries():
/media/user/Data/Documents/AVR/AVR/libraries/RF24/RF24.cpp:1533
}

/****************************************************************************/
void RF24::setRetries(uint8_t delay, uint8_t count)
{
 write_register(SETUP_RETR,(delay&0xf)<<ARD | (count&0xf)<<ARC);
    12dc:	65 e3       	ldi	r22, 0x35	; 53
    12de:	84 e0       	ldi	r24, 0x04	; 4
    12e0:	0e 94 c6 03 	call	0x78c	; 0x78c <RF24::write_register(unsigned char, unsigned char) [clone .constprop.35]>
openWritingPipe():
/media/user/Data/Documents/AVR/AVR/libraries/RF24/RF24.cpp:1133
void RF24::openWritingPipe(const uint8_t *address)
{
  // Note that AVR 8-bit uC's store this LSB first, and the NRF24L01(+)
  // expects it LSB first too, so we're good.

  write_register(RX_ADDR_P0,address, addr_width);
    12e4:	60 91 ec 01 	lds	r22, 0x01EC	; 0x8001ec <radio+0xd>
    12e8:	8a e0       	ldi	r24, 0x0A	; 10
    12ea:	0e 94 66 04 	call	0x8cc	; 0x8cc <RF24::write_register(unsigned char, unsigned char const*, unsigned char) [clone .constprop.21]>
/media/user/Data/Documents/AVR/AVR/libraries/RF24/RF24.cpp:1134
  write_register(TX_ADDR, address, addr_width);
    12ee:	60 91 ec 01 	lds	r22, 0x01EC	; 0x8001ec <radio+0xd>
    12f2:	80 e1       	ldi	r24, 0x10	; 16
    12f4:	0e 94 66 04 	call	0x8cc	; 0x8cc <RF24::write_register(unsigned char, unsigned char const*, unsigned char) [clone .constprop.21]>
/media/user/Data/Documents/AVR/AVR/libraries/RF24/RF24.cpp:1138

  //const uint8_t max_payload_size = 32;
  //write_register(RX_PW_P0,rf24_min(payload_size,max_payload_size));
  write_register(RX_PW_P0,payload_size);
    12f8:	60 91 e5 01 	lds	r22, 0x01E5	; 0x8001e5 <radio+0x6>
    12fc:	81 e1       	ldi	r24, 0x11	; 17
    12fe:	0e 94 c6 03 	call	0x78c	; 0x78c <RF24::write_register(unsigned char, unsigned char) [clone .constprop.35]>
setup():
/media/user/Data/Documents/AVR/AVR/elevator_altimeter/elevator_altimeter.ino:55
    radio.setRetries(3, 5); // delay, count
    radio.openWritingPipe(slaveAddress);
    Serial.println("Initialized radio !");
    1302:	82 e2       	ldi	r24, 0x22	; 34
    1304:	91 e0       	ldi	r25, 0x01	; 1
    1306:	0e 94 9f 05 	call	0xb3e	; 0xb3e <Print::println(char const*) [clone .constprop.24]>
requestFrom():
/home/user/.arduino15/packages/ATTinyCore/hardware/avr/1.5.2/libraries/Wire/src/Wire.cpp:426
  // clamp to buffer length
  if (quantity > TWI_BUFFER_SIZE) {
    quantity = TWI_BUFFER_SIZE;
  }
  // set address of targeted slave and read mode
  Buffer[0] = (address << TWI_ADR_BITS) | (1 << TWI_READ_BIT);
    130a:	11 ec       	ldi	r17, 0xC1	; 193
getEtage():
/tmp/arduino_build_376412/sketch/Alt.cpp:33
#ifdef DEBUG_Alt
        Serial.print("rs up, ");
#endif
    }

    etage = (alti - alt_RdC) / FLOOR_HEIGHT;
    130c:	60 e3       	ldi	r22, 0x30	; 48
    130e:	86 2e       	mov	r8, r22
    1310:	91 2c       	mov	r9, r1
    1312:	a1 2c       	mov	r10, r1
    1314:	b1 2c       	mov	r11, r1
loop():
/media/user/Data/Documents/AVR/AVR/elevator_altimeter/elevator_altimeter.ino:60

}

void loop() {
    if (alt_data.newDataReady) {
    1316:	80 91 de 01 	lds	r24, 0x01DE	; 0x8001de <alt_data+0x9>
    131a:	88 23       	and	r24, r24
    131c:	e1 f3       	breq	.-8      	; 0x1316 <main+0x380>
/media/user/Data/Documents/AVR/AVR/elevator_altimeter/elevator_altimeter.ino:61
        digitalWrite(LED1, HIGH);
    131e:	61 e0       	ldi	r22, 0x01	; 1
    1320:	89 e0       	ldi	r24, 0x09	; 9
    1322:	0e 94 bd 01 	call	0x37a	; 0x37a <digitalWrite>
/media/user/Data/Documents/AVR/AVR/elevator_altimeter/elevator_altimeter.ino:62
        alt_data.newDataReady = false;
    1326:	10 92 de 01 	sts	0x01DE, r1	; 0x8001de <alt_data+0x9>
ADC_SetVoltageReference():
/home/user/.arduino15/packages/ATTinyCore/hardware/avr/1.5.2/cores/tinymodern/core_adc.h:256
}
adc_ic_t;

__attribute__((always_inline)) static inline void ADC_SetVoltageReference( adc_vr_t vr )
{
  ADMUX = (ADMUX & ~MASK2(REFS1,REFS0)) | (((vr & B11) >> 0) << REFS0);
    132a:	94 b1       	in	r25, 0x04	; 4
    132c:	80 91 6f 01 	lds	r24, 0x016F	; 0x80016f <analog_reference>
    1330:	82 95       	swap	r24
    1332:	88 0f       	add	r24, r24
    1334:	88 0f       	add	r24, r24
    1336:	80 7c       	andi	r24, 0xC0	; 192
    1338:	9f 73       	andi	r25, 0x3F	; 63
    133a:	89 2b       	or	r24, r25
    133c:	84 b9       	out	0x04, r24	; 4
ADC_SetInputChannel():
/home/user/.arduino15/packages/ATTinyCore/hardware/avr/1.5.2/cores/tinymodern/core_adc.h:261
}

__attribute__((always_inline)) static inline void ADC_SetInputChannel( adc_ic_t ic )
{
  ADMUX = (ADMUX & ~MASK4(MUX3,MUX2,MUX1,MUX0)) | (ic << MUX0);
    133e:	84 b1       	in	r24, 0x04	; 4
    1340:	80 7f       	andi	r24, 0xF0	; 240
    1342:	84 b9       	out	0x04, r24	; 4
ADC_StartConversion():
/home/user/.arduino15/packages/ATTinyCore/hardware/avr/1.5.2/cores/tinymodern/core_adc.h:266
}

__attribute__((always_inline)) static inline void ADC_StartConversion( void )
{
  ADCSRA |= MASK1( ADSC );
    1344:	1e 9a       	sbi	0x03, 6	; 3
analogRead():
/home/user/.arduino15/packages/ATTinyCore/hardware/avr/1.5.2/cores/tinymodern/wiring_analog.c:61
  ADC_SetVoltageReference( analog_reference );
  ADC_SetInputChannel( pin );

  ADC_StartConversion();

  while( ADC_ConversionInProgress() );
    1346:	1e 99       	sbic	0x03, 6	; 3
    1348:	fe cf       	rjmp	.-4      	; 0x1346 <main+0x3b0>
ADC_GetDataRegister():
/home/user/.arduino15/packages/ATTinyCore/hardware/avr/1.5.2/cores/tinymodern/core_adc.h:276
  return( (ADCSRA & (1<<ADSC)) != 0 );
}

__attribute__((always_inline)) static inline uint16_t ADC_GetDataRegister( void )
{
  return( ADC );
    134a:	c0 b1       	in	r28, 0x00	; 0
    134c:	d1 b1       	in	r29, 0x01	; 1
loop():
/media/user/Data/Documents/AVR/AVR/elevator_altimeter/elevator_altimeter.ino:63
        batt_v = analogRead(Batt_sense);// ;
    134e:	d0 93 71 01 	sts	0x0171, r29	; 0x800171 <batt_v+0x1>
    1352:	c0 93 70 01 	sts	0x0170, r28	; 0x800170 <batt_v>
beginTransmission():
/home/user/.arduino15/packages/ATTinyCore/hardware/avr/1.5.2/libraries/Wire/src/Wire.cpp:471
  BufferIndex = 1; // reserved by slave address
  BufferLength = BufferIndex;
}

void TwoWire::beginTransmission(int address) {
  beginTransmission((uint8_t)address);
    1356:	80 e6       	ldi	r24, 0x60	; 96
    1358:	0e 94 b0 00 	call	0x160	; 0x160 <TwoWire::beginTransmission(unsigned char) [clone .constprop.53]>
MPL_readAltTemp():
/tmp/arduino_build_376412/sketch/Alt.cpp:101
}

void MPL_readAltTemp(uint32_t *alt, uint16_t *temp) {

    Wire.beginTransmission(ALTI_ADDR);
    Wire.write(0); //STATUS register (reads DR_STATUS reg (0x06))
    135c:	90 e0       	ldi	r25, 0x00	; 0
    135e:	80 e0       	ldi	r24, 0x00	; 0
    1360:	0e 94 7d 00 	call	0xfa	; 0xfa <TwoWire::write(int) [clone .constprop.58]>
requestFrom():
/home/user/.arduino15/packages/ATTinyCore/hardware/avr/1.5.2/libraries/Wire/src/Wire.cpp:426
  // clamp to buffer length
  if (quantity > TWI_BUFFER_SIZE) {
    quantity = TWI_BUFFER_SIZE;
  }
  // set address of targeted slave and read mode
  Buffer[0] = (address << TWI_ADR_BITS) | (1 << TWI_READ_BIT);
    1364:	10 93 42 01 	sts	0x0142, r17	; 0x800142 <__data_end>
/home/user/.arduino15/packages/ATTinyCore/hardware/avr/1.5.2/libraries/Wire/src/Wire.cpp:429
  // perform blocking read into buffer
  uint8_t ret = USI_TWI_Start_Transceiver_With_Data_Stop(Buffer, quantity,
                                                         sendStop);
    1368:	41 e0       	ldi	r20, 0x01	; 1
    136a:	67 e0       	ldi	r22, 0x07	; 7
    136c:	82 e4       	ldi	r24, 0x42	; 66
    136e:	91 e0       	ldi	r25, 0x01	; 1
    1370:	0e 94 d3 02 	call	0x5a6	; 0x5a6 <USI_TWI_Start_Transceiver_With_Data_Stop>
/home/user/.arduino15/packages/ATTinyCore/hardware/avr/1.5.2/libraries/Wire/src/Wire.cpp:431
  // set rx buffer iterator vars
  BufferIndex = 1; // ignore slave address
    1374:	91 e0       	ldi	r25, 0x01	; 1
    1376:	90 93 75 01 	sts	0x0175, r25	; 0x800175 <TwoWire::BufferIndex>
/home/user/.arduino15/packages/ATTinyCore/hardware/avr/1.5.2/libraries/Wire/src/Wire.cpp:433
  // check for error
  if (ret == FALSE) {
    137a:	81 11       	cpse	r24, r1
    137c:	ee c0       	rjmp	.+476    	; 0x155a <main+0x5c4>
/home/user/.arduino15/packages/ATTinyCore/hardware/avr/1.5.2/libraries/Wire/src/Wire.cpp:434
    BufferLength = BufferIndex;
    137e:	90 93 76 01 	sts	0x0176, r25	; 0x800176 <TwoWire::BufferLength>
available():
/home/user/.arduino15/packages/ATTinyCore/hardware/avr/1.5.2/libraries/Wire/src/Wire.cpp:551

// must be called in:
// slave rx event callback
// or after requestFrom(address, numBytes)
int TwoWire::available(void) {
  if (BufferLength) {
    1382:	40 91 76 01 	lds	r20, 0x0176	; 0x800176 <TwoWire::BufferLength>
    1386:	3f ef       	ldi	r19, 0xFF	; 255
    1388:	21 e0       	ldi	r18, 0x01	; 1
    138a:	c1 2c       	mov	r12, r1
    138c:	d1 2c       	mov	r13, r1
    138e:	76 01       	movw	r14, r12
    1390:	44 23       	and	r20, r20
    1392:	09 f4       	brne	.+2      	; 0x1396 <main+0x400>
    1394:	e6 c0       	rjmp	.+460    	; 0x1562 <main+0x5cc>
read():
/home/user/.arduino15/packages/ATTinyCore/hardware/avr/1.5.2/libraries/Wire/src/Wire.cpp:565
// or after requestFrom(address, numBytes)
int TwoWire::read(void) {
  int value = -1;

  // get each successive byte on each call
  if (available()) {
    1396:	42 13       	cpse	r20, r18
    1398:	fd c0       	rjmp	.+506    	; 0x1594 <main+0x5fe>
main():
/home/user/.arduino15/packages/ATTinyCore/hardware/avr/1.5.2/libraries/Wire/src/Wire.cpp:562

// must be called in:
// slave rx event callback
// or after requestFrom(address, numBytes)
int TwoWire::read(void) {
  int value = -1;
    139a:	8f ef       	ldi	r24, 0xFF	; 255
    139c:	9f ef       	ldi	r25, 0xFF	; 255
MPL_readAltTemp():
/tmp/arduino_build_376412/sketch/Alt.cpp:108
    uint32_t alti = 0; // in 16*meters
    uint16_t tempe = 0; //in 16*degrees
    Wire.requestFrom(ALTI_ADDR, n);//request n bytes from slave device, free up bus after transmission
    for (uint8_t i = 0; i < n; i++) {
        uint8_t d = Wire.read();
        if (i == 0) {
    139e:	33 30       	cpi	r19, 0x03	; 3
    13a0:	28 f4       	brcc	.+10     	; 0x13ac <main+0x416>
/tmp/arduino_build_376412/sketch/Alt.cpp:117
                //Serial.print(",ok");
            } else { //no new data available

            }
        } else if (i < 4) {
            alti = (alti << 8) | d;
    13a2:	fe 2c       	mov	r15, r14
    13a4:	ed 2c       	mov	r14, r13
    13a6:	dc 2c       	mov	r13, r12
    13a8:	cc 24       	eor	r12, r12
    13aa:	c8 2a       	or	r12, r24
    13ac:	3f 5f       	subi	r19, 0xFF	; 255
/tmp/arduino_build_376412/sketch/Alt.cpp:106
    Wire.write(0); //STATUS register (reads DR_STATUS reg (0x06))
    uint8_t n = 6;
    uint32_t alti = 0; // in 16*meters
    uint16_t tempe = 0; //in 16*degrees
    Wire.requestFrom(ALTI_ADDR, n);//request n bytes from slave device, free up bus after transmission
    for (uint8_t i = 0; i < n; i++) {
    13ae:	35 30       	cpi	r19, 0x05	; 5
    13b0:	79 f7       	brne	.-34     	; 0x1390 <main+0x3fa>
    13b2:	20 93 75 01 	sts	0x0175, r18	; 0x800175 <TwoWire::BufferIndex>
/tmp/arduino_build_376412/sketch/Alt.cpp:122
            alti = (alti << 8) | d;
        } else {
            tempe = (tempe << 8) | d; //temp is 8MSBs=int value, 8LSBs=[4 decimal, 0b0000].
        }
    }
    *alt = alti >> 4;
    13b6:	26 01       	movw	r4, r12
    13b8:	37 01       	movw	r6, r14
    13ba:	44 e0       	ldi	r20, 0x04	; 4
    13bc:	76 94       	lsr	r7
    13be:	67 94       	ror	r6
    13c0:	57 94       	ror	r5
    13c2:	47 94       	ror	r4
    13c4:	4a 95       	dec	r20
    13c6:	d1 f7       	brne	.-12     	; 0x13bc <main+0x426>
getEtage():
/tmp/arduino_build_376412/sketch/Alt.cpp:19
    newDataReady = true;

}

uint8_t Alt_Data::getEtage(uint32_t alt) {
    alti = alt;
    13c8:	40 92 d5 01 	sts	0x01D5, r4	; 0x8001d5 <alt_data>
    13cc:	50 92 d6 01 	sts	0x01D6, r5	; 0x8001d6 <alt_data+0x1>
    13d0:	60 92 d7 01 	sts	0x01D7, r6	; 0x8001d7 <alt_data+0x2>
    13d4:	70 92 d8 01 	sts	0x01D8, r7	; 0x8001d8 <alt_data+0x3>
/tmp/arduino_build_376412/sketch/Alt.cpp:21

    if (alti < alt_RdC) {
    13d8:	80 91 da 01 	lds	r24, 0x01DA	; 0x8001da <alt_data+0x5>
    13dc:	90 91 db 01 	lds	r25, 0x01DB	; 0x8001db <alt_data+0x6>
    13e0:	a0 91 dc 01 	lds	r26, 0x01DC	; 0x8001dc <alt_data+0x7>
    13e4:	b0 91 dd 01 	lds	r27, 0x01DD	; 0x8001dd <alt_data+0x8>
    13e8:	48 16       	cp	r4, r24
    13ea:	59 06       	cpc	r5, r25
    13ec:	6a 06       	cpc	r6, r26
    13ee:	7b 06       	cpc	r7, r27
    13f0:	08 f0       	brcs	.+2      	; 0x13f4 <main+0x45e>
    13f2:	d7 c0       	rjmp	.+430    	; 0x15a2 <main+0x60c>
/tmp/arduino_build_376412/sketch/Alt.cpp:22
        alt_RdC = alti;
    13f4:	40 92 da 01 	sts	0x01DA, r4	; 0x8001da <alt_data+0x5>
    13f8:	50 92 db 01 	sts	0x01DB, r5	; 0x8001db <alt_data+0x6>
    13fc:	60 92 dc 01 	sts	0x01DC, r6	; 0x8001dc <alt_data+0x7>
    1400:	70 92 dd 01 	sts	0x01DD, r7	; 0x8001dd <alt_data+0x8>
/tmp/arduino_build_376412/sketch/Alt.cpp:33
#ifdef DEBUG_Alt
        Serial.print("rs up, ");
#endif
    }

    etage = (alti - alt_RdC) / FLOOR_HEIGHT;
    1404:	80 91 da 01 	lds	r24, 0x01DA	; 0x8001da <alt_data+0x5>
    1408:	90 91 db 01 	lds	r25, 0x01DB	; 0x8001db <alt_data+0x6>
    140c:	a0 91 dc 01 	lds	r26, 0x01DC	; 0x8001dc <alt_data+0x7>
    1410:	b0 91 dd 01 	lds	r27, 0x01DD	; 0x8001dd <alt_data+0x8>
    1414:	a3 01       	movw	r20, r6
    1416:	92 01       	movw	r18, r4
    1418:	28 1b       	sub	r18, r24
    141a:	39 0b       	sbc	r19, r25
    141c:	4a 0b       	sbc	r20, r26
    141e:	5b 0b       	sbc	r21, r27
    1420:	ca 01       	movw	r24, r20
    1422:	b9 01       	movw	r22, r18
    1424:	a5 01       	movw	r20, r10
    1426:	94 01       	movw	r18, r8
    1428:	0e 94 51 0b 	call	0x16a2	; 0x16a2 <__udivmodsi4>
    142c:	02 2f       	mov	r16, r18
    142e:	20 93 d9 01 	sts	0x01D9, r18	; 0x8001d9 <alt_data+0x4>
loop():
/media/user/Data/Documents/AVR/AVR/elevator_altimeter/elevator_altimeter.ino:88
                Serial.println(batt_v / 1024.0 * 2.5 * 2.0);
                break;
            default:
                break;
        }*/
        digitalWrite(LED1, LOW);
    1432:	60 e0       	ldi	r22, 0x00	; 0
    1434:	89 e0       	ldi	r24, 0x09	; 9
    1436:	0e 94 bd 01 	call	0x37a	; 0x37a <digitalWrite>
/media/user/Data/Documents/AVR/AVR/elevator_altimeter/elevator_altimeter.ino:89
        digitalWrite(LED0, HIGH);
    143a:	61 e0       	ldi	r22, 0x01	; 1
    143c:	8a e0       	ldi	r24, 0x0A	; 10
    143e:	0e 94 bd 01 	call	0x37a	; 0x37a <digitalWrite>
/media/user/Data/Documents/AVR/AVR/elevator_altimeter/elevator_altimeter.ino:91

        dataToSend[3] = (etage << 4) | ((alti >> 14) & 0x0F);
    1442:	d7 01       	movw	r26, r14
    1444:	c6 01       	movw	r24, r12
    1446:	22 e1       	ldi	r18, 0x12	; 18
    1448:	b6 95       	lsr	r27
    144a:	a7 95       	ror	r26
    144c:	97 95       	ror	r25
    144e:	87 95       	ror	r24
    1450:	2a 95       	dec	r18
    1452:	d1 f7       	brne	.-12     	; 0x1448 <main+0x4b2>
    1454:	8f 70       	andi	r24, 0x0F	; 15
    1456:	02 95       	swap	r16
    1458:	00 7f       	andi	r16, 0xF0	; 240
    145a:	80 2b       	or	r24, r16
    145c:	80 93 03 01 	sts	0x0103, r24	; 0x800103 <__data_start+0x3>
/media/user/Data/Documents/AVR/AVR/elevator_altimeter/elevator_altimeter.ino:92
        dataToSend[2] = alti >> 6;
    1460:	3a e0       	ldi	r19, 0x0A	; 10
    1462:	f6 94       	lsr	r15
    1464:	e7 94       	ror	r14
    1466:	d7 94       	ror	r13
    1468:	c7 94       	ror	r12
    146a:	3a 95       	dec	r19
    146c:	d1 f7       	brne	.-12     	; 0x1462 <main+0x4cc>
    146e:	c0 92 02 01 	sts	0x0102, r12	; 0x800102 <__data_start+0x2>
/media/user/Data/Documents/AVR/AVR/elevator_altimeter/elevator_altimeter.ino:93
        dataToSend[1] = ((alti << 2) & 0xFC) | ((batt_v >> 8) & 0x03);
    1472:	8d 2f       	mov	r24, r29
    1474:	83 70       	andi	r24, 0x03	; 3
    1476:	44 0c       	add	r4, r4
    1478:	44 0c       	add	r4, r4
    147a:	48 2a       	or	r4, r24
    147c:	40 92 01 01 	sts	0x0101, r4	; 0x800101 <__data_start+0x1>
/media/user/Data/Documents/AVR/AVR/elevator_altimeter/elevator_altimeter.ino:94
        dataToSend[0] = batt_v;
    1480:	c0 93 00 01 	sts	0x0100, r28	; 0x800100 <__data_start>
write_payload():
/media/user/Data/Documents/AVR/AVR/libraries/RF24/RF24.cpp:222
uint8_t RF24::write_payload(const void* buf, uint8_t data_len, const uint8_t writeType)
{
  uint8_t status;
  const uint8_t* current = reinterpret_cast<const uint8_t*>(buf);

   data_len = rf24_min(data_len, payload_size);
    1484:	c0 91 e5 01 	lds	r28, 0x01E5	; 0x8001e5 <radio+0x6>
    1488:	dc 2f       	mov	r29, r28
    148a:	c5 30       	cpi	r28, 0x05	; 5
    148c:	08 f0       	brcs	.+2      	; 0x1490 <main+0x4fa>
    148e:	d4 e0       	ldi	r29, 0x04	; 4
/media/user/Data/Documents/AVR/AVR/libraries/RF24/RF24.cpp:223
   uint8_t blank_len = dynamic_payloads_enabled ? 0 : payload_size - data_len;
    1490:	80 91 e6 01 	lds	r24, 0x01E6	; 0x8001e6 <radio+0x7>
    1494:	cd 1b       	sub	r28, r29
    1496:	81 11       	cpse	r24, r1
main():
    1498:	c0 e0       	ldi	r28, 0x00	; 0
write_payload():
/media/user/Data/Documents/AVR/AVR/libraries/RF24/RF24.cpp:247
	status = *prx; // status is 1st byte of receive buffer
	endTransaction();

  #else

  beginTransaction();
    149a:	0e 94 6e 03 	call	0x6dc	; 0x6dc <RF24::beginTransaction() [clone .constprop.38]>
fastBitWriteSafe():
/media/user/Data/Documents/AVR/AVR/libraries/DigitalIO/src/DigitalPin.h:113
  if (address > reinterpret_cast<uint8_t*>(0X3F)) {
    s = SREG;
    cli();
  }
  if (level) {
    *address |= mask;
    149e:	8d 9a       	sbi	0x11, 5	; 17
    14a0:	89 9a       	sbi	0x11, 1	; 17
fastDigitalRead():
/media/user/Data/Documents/AVR/AVR/libraries/DigitalIO/src/DigitalPin.h:128
 * @param[in] pin Arduino pin number
 * @return value read
 */
static inline __attribute__((always_inline))
bool fastDigitalRead(uint8_t pin) {
  return *pinReg(pin) & pinMask(pin);
    14a2:	8f b1       	in	r24, 0x0f	; 15
fastBitWriteSafe():
/media/user/Data/Documents/AVR/AVR/libraries/DigitalIO/src/DigitalPin.h:115
    cli();
  }
  if (level) {
    *address |= mask;
  } else {
    *address &= ~mask;
    14a4:	89 98       	cbi	0x11, 1	; 17
    14a6:	8d 98       	cbi	0x11, 5	; 17
/media/user/Data/Documents/AVR/AVR/libraries/DigitalIO/src/DigitalPin.h:113
  if (address > reinterpret_cast<uint8_t*>(0X3F)) {
    s = SREG;
    cli();
  }
  if (level) {
    *address |= mask;
    14a8:	89 9a       	sbi	0x11, 1	; 17
fastDigitalRead():
/media/user/Data/Documents/AVR/AVR/libraries/DigitalIO/src/DigitalPin.h:128
 * @param[in] pin Arduino pin number
 * @return value read
 */
static inline __attribute__((always_inline))
bool fastDigitalRead(uint8_t pin) {
  return *pinReg(pin) & pinMask(pin);
    14aa:	8f b1       	in	r24, 0x0f	; 15
fastBitWriteSafe():
/media/user/Data/Documents/AVR/AVR/libraries/DigitalIO/src/DigitalPin.h:115
    cli();
  }
  if (level) {
    *address |= mask;
  } else {
    *address &= ~mask;
    14ac:	89 98       	cbi	0x11, 1	; 17
/media/user/Data/Documents/AVR/AVR/libraries/DigitalIO/src/DigitalPin.h:113
  if (address > reinterpret_cast<uint8_t*>(0X3F)) {
    s = SREG;
    cli();
  }
  if (level) {
    *address |= mask;
    14ae:	8d 9a       	sbi	0x11, 5	; 17
    14b0:	89 9a       	sbi	0x11, 1	; 17
fastDigitalRead():
/media/user/Data/Documents/AVR/AVR/libraries/DigitalIO/src/DigitalPin.h:128
 * @param[in] pin Arduino pin number
 * @return value read
 */
static inline __attribute__((always_inline))
bool fastDigitalRead(uint8_t pin) {
  return *pinReg(pin) & pinMask(pin);
    14b2:	8f b1       	in	r24, 0x0f	; 15
fastBitWriteSafe():
/media/user/Data/Documents/AVR/AVR/libraries/DigitalIO/src/DigitalPin.h:115
    cli();
  }
  if (level) {
    *address |= mask;
  } else {
    *address &= ~mask;
    14b4:	89 98       	cbi	0x11, 1	; 17
    14b6:	8d 98       	cbi	0x11, 5	; 17
/media/user/Data/Documents/AVR/AVR/libraries/DigitalIO/src/DigitalPin.h:113
  if (address > reinterpret_cast<uint8_t*>(0X3F)) {
    s = SREG;
    cli();
  }
  if (level) {
    *address |= mask;
    14b8:	89 9a       	sbi	0x11, 1	; 17
fastDigitalRead():
/media/user/Data/Documents/AVR/AVR/libraries/DigitalIO/src/DigitalPin.h:128
 * @param[in] pin Arduino pin number
 * @return value read
 */
static inline __attribute__((always_inline))
bool fastDigitalRead(uint8_t pin) {
  return *pinReg(pin) & pinMask(pin);
    14ba:	8f b1       	in	r24, 0x0f	; 15
fastBitWriteSafe():
/media/user/Data/Documents/AVR/AVR/libraries/DigitalIO/src/DigitalPin.h:115
    cli();
  }
  if (level) {
    *address |= mask;
  } else {
    *address &= ~mask;
    14bc:	89 98       	cbi	0x11, 1	; 17
    14be:	8d 98       	cbi	0x11, 5	; 17
/media/user/Data/Documents/AVR/AVR/libraries/DigitalIO/src/DigitalPin.h:113
  if (address > reinterpret_cast<uint8_t*>(0X3F)) {
    s = SREG;
    cli();
  }
  if (level) {
    *address |= mask;
    14c0:	89 9a       	sbi	0x11, 1	; 17
fastDigitalRead():
/media/user/Data/Documents/AVR/AVR/libraries/DigitalIO/src/DigitalPin.h:128
 * @param[in] pin Arduino pin number
 * @return value read
 */
static inline __attribute__((always_inline))
bool fastDigitalRead(uint8_t pin) {
  return *pinReg(pin) & pinMask(pin);
    14c2:	8f b1       	in	r24, 0x0f	; 15
fastBitWriteSafe():
/media/user/Data/Documents/AVR/AVR/libraries/DigitalIO/src/DigitalPin.h:115
    cli();
  }
  if (level) {
    *address |= mask;
  } else {
    *address &= ~mask;
    14c4:	89 98       	cbi	0x11, 1	; 17
    14c6:	8d 98       	cbi	0x11, 5	; 17
/media/user/Data/Documents/AVR/AVR/libraries/DigitalIO/src/DigitalPin.h:113
  if (address > reinterpret_cast<uint8_t*>(0X3F)) {
    s = SREG;
    cli();
  }
  if (level) {
    *address |= mask;
    14c8:	89 9a       	sbi	0x11, 1	; 17
fastDigitalRead():
/media/user/Data/Documents/AVR/AVR/libraries/DigitalIO/src/DigitalPin.h:128
 * @param[in] pin Arduino pin number
 * @return value read
 */
static inline __attribute__((always_inline))
bool fastDigitalRead(uint8_t pin) {
  return *pinReg(pin) & pinMask(pin);
    14ca:	8f b1       	in	r24, 0x0f	; 15
fastBitWriteSafe():
/media/user/Data/Documents/AVR/AVR/libraries/DigitalIO/src/DigitalPin.h:115
    cli();
  }
  if (level) {
    *address |= mask;
  } else {
    *address &= ~mask;
    14cc:	89 98       	cbi	0x11, 1	; 17
    14ce:	8d 98       	cbi	0x11, 5	; 17
/media/user/Data/Documents/AVR/AVR/libraries/DigitalIO/src/DigitalPin.h:113
  if (address > reinterpret_cast<uint8_t*>(0X3F)) {
    s = SREG;
    cli();
  }
  if (level) {
    *address |= mask;
    14d0:	89 9a       	sbi	0x11, 1	; 17
fastDigitalRead():
/media/user/Data/Documents/AVR/AVR/libraries/DigitalIO/src/DigitalPin.h:128
 * @param[in] pin Arduino pin number
 * @return value read
 */
static inline __attribute__((always_inline))
bool fastDigitalRead(uint8_t pin) {
  return *pinReg(pin) & pinMask(pin);
    14d2:	8f b1       	in	r24, 0x0f	; 15
fastBitWriteSafe():
/media/user/Data/Documents/AVR/AVR/libraries/DigitalIO/src/DigitalPin.h:115
    cli();
  }
  if (level) {
    *address |= mask;
  } else {
    *address &= ~mask;
    14d4:	89 98       	cbi	0x11, 1	; 17
    14d6:	8d 98       	cbi	0x11, 5	; 17
/media/user/Data/Documents/AVR/AVR/libraries/DigitalIO/src/DigitalPin.h:113
  if (address > reinterpret_cast<uint8_t*>(0X3F)) {
    s = SREG;
    cli();
  }
  if (level) {
    *address |= mask;
    14d8:	89 9a       	sbi	0x11, 1	; 17
fastDigitalRead():
/media/user/Data/Documents/AVR/AVR/libraries/DigitalIO/src/DigitalPin.h:128
 * @param[in] pin Arduino pin number
 * @return value read
 */
static inline __attribute__((always_inline))
bool fastDigitalRead(uint8_t pin) {
  return *pinReg(pin) & pinMask(pin);
    14da:	8f b1       	in	r24, 0x0f	; 15
fastBitWriteSafe():
/media/user/Data/Documents/AVR/AVR/libraries/DigitalIO/src/DigitalPin.h:115
    cli();
  }
  if (level) {
    *address |= mask;
  } else {
    *address &= ~mask;
    14dc:	89 98       	cbi	0x11, 1	; 17
    14de:	e0 e0       	ldi	r30, 0x00	; 0
    14e0:	f1 e0       	ldi	r31, 0x01	; 1
write_payload():
/media/user/Data/Documents/AVR/AVR/libraries/RF24/RF24.cpp:249
  status = _SPI.transfer( writeType );
  while ( data_len-- ) {
    14e2:	d1 50       	subi	r29, 0x01	; 1
    14e4:	08 f4       	brcc	.+2      	; 0x14e8 <main+0x552>
    14e6:	86 c0       	rjmp	.+268    	; 0x15f4 <main+0x65e>
/media/user/Data/Documents/AVR/AVR/libraries/RF24/RF24.cpp:250
    _SPI.transfer(*current++);
    14e8:	81 91       	ld	r24, Z+
_ZN7SoftSPIILh6ELh3ELh7ELh0EE11transferBitEhPhh():
/media/user/Data/Documents/AVR/AVR/libraries/DigitalIO/src/SoftSPI.h:151
  inline __attribute__((always_inline))
  void transferBit(uint8_t bit, uint8_t* rxData, uint8_t txData) {
    if (MODE_CPHA(Mode)) {
      fastDigitalWrite(SckPin, !MODE_CPOL(Mode));
    }
    fastDigitalWrite(MosiPin, txData & (1 << bit));
    14ea:	28 2f       	mov	r18, r24
    14ec:	30 e0       	ldi	r19, 0x00	; 0
    14ee:	22 0f       	add	r18, r18
    14f0:	23 2f       	mov	r18, r19
    14f2:	22 1f       	adc	r18, r18
    14f4:	33 0b       	sbc	r19, r19
fastBitWriteSafe():
/media/user/Data/Documents/AVR/AVR/libraries/DigitalIO/src/DigitalPin.h:112
  uint8_t s;
  if (address > reinterpret_cast<uint8_t*>(0X3F)) {
    s = SREG;
    cli();
  }
  if (level) {
    14f6:	23 2b       	or	r18, r19
    14f8:	09 f4       	brne	.+2      	; 0x14fc <main+0x566>
    14fa:	6c c0       	rjmp	.+216    	; 0x15d4 <main+0x63e>
/media/user/Data/Documents/AVR/AVR/libraries/DigitalIO/src/DigitalPin.h:113
    *address |= mask;
    14fc:	8d 9a       	sbi	0x11, 5	; 17
    14fe:	89 9a       	sbi	0x11, 1	; 17
fastDigitalRead():
/media/user/Data/Documents/AVR/AVR/libraries/DigitalIO/src/DigitalPin.h:128
 * @param[in] pin Arduino pin number
 * @return value read
 */
static inline __attribute__((always_inline))
bool fastDigitalRead(uint8_t pin) {
  return *pinReg(pin) & pinMask(pin);
    1500:	9f b1       	in	r25, 0x0f	; 15
fastBitWriteSafe():
/media/user/Data/Documents/AVR/AVR/libraries/DigitalIO/src/DigitalPin.h:115
    cli();
  }
  if (level) {
    *address |= mask;
  } else {
    *address &= ~mask;
    1502:	89 98       	cbi	0x11, 1	; 17
/media/user/Data/Documents/AVR/AVR/libraries/DigitalIO/src/DigitalPin.h:112
  uint8_t s;
  if (address > reinterpret_cast<uint8_t*>(0X3F)) {
    s = SREG;
    cli();
  }
  if (level) {
    1504:	86 ff       	sbrs	r24, 6
    1506:	68 c0       	rjmp	.+208    	; 0x15d8 <main+0x642>
/media/user/Data/Documents/AVR/AVR/libraries/DigitalIO/src/DigitalPin.h:113
    *address |= mask;
    1508:	8d 9a       	sbi	0x11, 5	; 17
    150a:	89 9a       	sbi	0x11, 1	; 17
fastDigitalRead():
/media/user/Data/Documents/AVR/AVR/libraries/DigitalIO/src/DigitalPin.h:128
 * @param[in] pin Arduino pin number
 * @return value read
 */
static inline __attribute__((always_inline))
bool fastDigitalRead(uint8_t pin) {
  return *pinReg(pin) & pinMask(pin);
    150c:	9f b1       	in	r25, 0x0f	; 15
fastBitWriteSafe():
/media/user/Data/Documents/AVR/AVR/libraries/DigitalIO/src/DigitalPin.h:115
    cli();
  }
  if (level) {
    *address |= mask;
  } else {
    *address &= ~mask;
    150e:	89 98       	cbi	0x11, 1	; 17
/media/user/Data/Documents/AVR/AVR/libraries/DigitalIO/src/DigitalPin.h:112
  uint8_t s;
  if (address > reinterpret_cast<uint8_t*>(0X3F)) {
    s = SREG;
    cli();
  }
  if (level) {
    1510:	85 ff       	sbrs	r24, 5
    1512:	64 c0       	rjmp	.+200    	; 0x15dc <main+0x646>
/media/user/Data/Documents/AVR/AVR/libraries/DigitalIO/src/DigitalPin.h:113
    *address |= mask;
    1514:	8d 9a       	sbi	0x11, 5	; 17
    1516:	89 9a       	sbi	0x11, 1	; 17
fastDigitalRead():
/media/user/Data/Documents/AVR/AVR/libraries/DigitalIO/src/DigitalPin.h:128
 * @param[in] pin Arduino pin number
 * @return value read
 */
static inline __attribute__((always_inline))
bool fastDigitalRead(uint8_t pin) {
  return *pinReg(pin) & pinMask(pin);
    1518:	9f b1       	in	r25, 0x0f	; 15
fastBitWriteSafe():
/media/user/Data/Documents/AVR/AVR/libraries/DigitalIO/src/DigitalPin.h:115
    cli();
  }
  if (level) {
    *address |= mask;
  } else {
    *address &= ~mask;
    151a:	89 98       	cbi	0x11, 1	; 17
/media/user/Data/Documents/AVR/AVR/libraries/DigitalIO/src/DigitalPin.h:112
  uint8_t s;
  if (address > reinterpret_cast<uint8_t*>(0X3F)) {
    s = SREG;
    cli();
  }
  if (level) {
    151c:	84 ff       	sbrs	r24, 4
    151e:	60 c0       	rjmp	.+192    	; 0x15e0 <main+0x64a>
/media/user/Data/Documents/AVR/AVR/libraries/DigitalIO/src/DigitalPin.h:113
    *address |= mask;
    1520:	8d 9a       	sbi	0x11, 5	; 17
    1522:	89 9a       	sbi	0x11, 1	; 17
fastDigitalRead():
/media/user/Data/Documents/AVR/AVR/libraries/DigitalIO/src/DigitalPin.h:128
 * @param[in] pin Arduino pin number
 * @return value read
 */
static inline __attribute__((always_inline))
bool fastDigitalRead(uint8_t pin) {
  return *pinReg(pin) & pinMask(pin);
    1524:	9f b1       	in	r25, 0x0f	; 15
fastBitWriteSafe():
/media/user/Data/Documents/AVR/AVR/libraries/DigitalIO/src/DigitalPin.h:115
    cli();
  }
  if (level) {
    *address |= mask;
  } else {
    *address &= ~mask;
    1526:	89 98       	cbi	0x11, 1	; 17
/media/user/Data/Documents/AVR/AVR/libraries/DigitalIO/src/DigitalPin.h:112
  uint8_t s;
  if (address > reinterpret_cast<uint8_t*>(0X3F)) {
    s = SREG;
    cli();
  }
  if (level) {
    1528:	83 ff       	sbrs	r24, 3
    152a:	5c c0       	rjmp	.+184    	; 0x15e4 <main+0x64e>
/media/user/Data/Documents/AVR/AVR/libraries/DigitalIO/src/DigitalPin.h:113
    *address |= mask;
    152c:	8d 9a       	sbi	0x11, 5	; 17
    152e:	89 9a       	sbi	0x11, 1	; 17
fastDigitalRead():
/media/user/Data/Documents/AVR/AVR/libraries/DigitalIO/src/DigitalPin.h:128
 * @param[in] pin Arduino pin number
 * @return value read
 */
static inline __attribute__((always_inline))
bool fastDigitalRead(uint8_t pin) {
  return *pinReg(pin) & pinMask(pin);
    1530:	9f b1       	in	r25, 0x0f	; 15
fastBitWriteSafe():
/media/user/Data/Documents/AVR/AVR/libraries/DigitalIO/src/DigitalPin.h:115
    cli();
  }
  if (level) {
    *address |= mask;
  } else {
    *address &= ~mask;
    1532:	89 98       	cbi	0x11, 1	; 17
/media/user/Data/Documents/AVR/AVR/libraries/DigitalIO/src/DigitalPin.h:112
  uint8_t s;
  if (address > reinterpret_cast<uint8_t*>(0X3F)) {
    s = SREG;
    cli();
  }
  if (level) {
    1534:	82 ff       	sbrs	r24, 2
    1536:	58 c0       	rjmp	.+176    	; 0x15e8 <main+0x652>
/media/user/Data/Documents/AVR/AVR/libraries/DigitalIO/src/DigitalPin.h:113
    *address |= mask;
    1538:	8d 9a       	sbi	0x11, 5	; 17
    153a:	89 9a       	sbi	0x11, 1	; 17
fastDigitalRead():
/media/user/Data/Documents/AVR/AVR/libraries/DigitalIO/src/DigitalPin.h:128
 * @param[in] pin Arduino pin number
 * @return value read
 */
static inline __attribute__((always_inline))
bool fastDigitalRead(uint8_t pin) {
  return *pinReg(pin) & pinMask(pin);
    153c:	9f b1       	in	r25, 0x0f	; 15
fastBitWriteSafe():
/media/user/Data/Documents/AVR/AVR/libraries/DigitalIO/src/DigitalPin.h:115
    cli();
  }
  if (level) {
    *address |= mask;
  } else {
    *address &= ~mask;
    153e:	89 98       	cbi	0x11, 1	; 17
/media/user/Data/Documents/AVR/AVR/libraries/DigitalIO/src/DigitalPin.h:112
  uint8_t s;
  if (address > reinterpret_cast<uint8_t*>(0X3F)) {
    s = SREG;
    cli();
  }
  if (level) {
    1540:	81 ff       	sbrs	r24, 1
    1542:	54 c0       	rjmp	.+168    	; 0x15ec <main+0x656>
/media/user/Data/Documents/AVR/AVR/libraries/DigitalIO/src/DigitalPin.h:113
    *address |= mask;
    1544:	8d 9a       	sbi	0x11, 5	; 17
    1546:	89 9a       	sbi	0x11, 1	; 17
fastDigitalRead():
/media/user/Data/Documents/AVR/AVR/libraries/DigitalIO/src/DigitalPin.h:128
 * @param[in] pin Arduino pin number
 * @return value read
 */
static inline __attribute__((always_inline))
bool fastDigitalRead(uint8_t pin) {
  return *pinReg(pin) & pinMask(pin);
    1548:	9f b1       	in	r25, 0x0f	; 15
fastBitWriteSafe():
/media/user/Data/Documents/AVR/AVR/libraries/DigitalIO/src/DigitalPin.h:115
    cli();
  }
  if (level) {
    *address |= mask;
  } else {
    *address &= ~mask;
    154a:	89 98       	cbi	0x11, 1	; 17
/media/user/Data/Documents/AVR/AVR/libraries/DigitalIO/src/DigitalPin.h:112
  uint8_t s;
  if (address > reinterpret_cast<uint8_t*>(0X3F)) {
    s = SREG;
    cli();
  }
  if (level) {
    154c:	80 ff       	sbrs	r24, 0
    154e:	50 c0       	rjmp	.+160    	; 0x15f0 <main+0x65a>
/media/user/Data/Documents/AVR/AVR/libraries/DigitalIO/src/DigitalPin.h:113
    *address |= mask;
    1550:	8d 9a       	sbi	0x11, 5	; 17
    1552:	89 9a       	sbi	0x11, 1	; 17
fastDigitalRead():
/media/user/Data/Documents/AVR/AVR/libraries/DigitalIO/src/DigitalPin.h:128
 * @param[in] pin Arduino pin number
 * @return value read
 */
static inline __attribute__((always_inline))
bool fastDigitalRead(uint8_t pin) {
  return *pinReg(pin) & pinMask(pin);
    1554:	8f b1       	in	r24, 0x0f	; 15
fastBitWriteSafe():
/media/user/Data/Documents/AVR/AVR/libraries/DigitalIO/src/DigitalPin.h:115
    cli();
  }
  if (level) {
    *address |= mask;
  } else {
    *address &= ~mask;
    1556:	89 98       	cbi	0x11, 1	; 17
    1558:	c4 cf       	rjmp	.-120    	; 0x14e2 <main+0x54c>
requestFrom():
/home/user/.arduino15/packages/ATTinyCore/hardware/avr/1.5.2/libraries/Wire/src/Wire.cpp:437
  // check for error
  if (ret == FALSE) {
    BufferLength = BufferIndex;
    return 0;
  }
  BufferLength = quantity;
    155a:	87 e0       	ldi	r24, 0x07	; 7
    155c:	80 93 76 01 	sts	0x0176, r24	; 0x800176 <TwoWire::BufferLength>
    1560:	10 cf       	rjmp	.-480    	; 0x1382 <main+0x3ec>
USI_TWI_Data_In_Receive_Buffer():
/home/user/.arduino15/packages/ATTinyCore/hardware/avr/1.5.2/libraries/Wire/src/USI_TWI_Slave/USI_TWI_Slave.c:136

// Check if there is data in the receive buffer.
unsigned char USI_TWI_Data_In_Receive_Buffer(void)
{
  unsigned char tmpRxTail;          // Temporary variable to store volatile
  tmpRxTail = TWI_RxTail;           // Not necessary, but prevents warnings
    1562:	90 91 6e 01 	lds	r25, 0x016E	; 0x80016e <TWI_RxTail>
/home/user/.arduino15/packages/ATTinyCore/hardware/avr/1.5.2/libraries/Wire/src/USI_TWI_Slave/USI_TWI_Slave.c:137
  return (TWI_RxHead - tmpRxTail) & TWI_RX_BUFFER_MASK; // Return 0 (FALSE) if the receive buffer is empty.
    1566:	80 91 6d 01 	lds	r24, 0x016D	; 0x80016d <TWI_RxHead>
    156a:	89 1b       	sub	r24, r25
    156c:	8f 70       	andi	r24, 0x0F	; 15
read():
/home/user/.arduino15/packages/ATTinyCore/hardware/avr/1.5.2/libraries/Wire/src/Wire.cpp:565
// or after requestFrom(address, numBytes)
int TwoWire::read(void) {
  int value = -1;

  // get each successive byte on each call
  if (available()) {
    156e:	09 f4       	brne	.+2      	; 0x1572 <main+0x5dc>
    1570:	14 cf       	rjmp	.-472    	; 0x139a <main+0x404>
USI_TWI_Receive_Byte():
/home/user/.arduino15/packages/ATTinyCore/hardware/avr/1.5.2/libraries/Wire/src/USI_TWI_Slave/USI_TWI_Slave.c:112
// Returns a byte from the receive buffer. Waits if buffer is empty.
unsigned char USI_TWI_Receive_Byte(void)
{
  unsigned char tmptail;
  unsigned char tmpRxTail; // Temporary variable to store volatile
  tmpRxTail = TWI_RxTail;  // Not necessary, but prevents warnings
    1572:	90 91 6e 01 	lds	r25, 0x016E	; 0x80016e <TWI_RxTail>
/home/user/.arduino15/packages/ATTinyCore/hardware/avr/1.5.2/libraries/Wire/src/USI_TWI_Slave/USI_TWI_Slave.c:113
  while (TWI_RxHead == tmpRxTail)
    1576:	80 91 6d 01 	lds	r24, 0x016D	; 0x80016d <TWI_RxHead>
    157a:	98 17       	cp	r25, r24
    157c:	e1 f3       	breq	.-8      	; 0x1576 <main+0x5e0>
/home/user/.arduino15/packages/ATTinyCore/hardware/avr/1.5.2/libraries/Wire/src/USI_TWI_Slave/USI_TWI_Slave.c:115
    ;
  tmptail    = (TWI_RxTail + 1) & TWI_RX_BUFFER_MASK; // Calculate buffer index
    157e:	e0 91 6e 01 	lds	r30, 0x016E	; 0x80016e <TWI_RxTail>
    1582:	ef 5f       	subi	r30, 0xFF	; 255
    1584:	ef 70       	andi	r30, 0x0F	; 15
/home/user/.arduino15/packages/ATTinyCore/hardware/avr/1.5.2/libraries/Wire/src/USI_TWI_Slave/USI_TWI_Slave.c:116
  TWI_RxTail = tmptail;                               // Store new index
    1586:	e0 93 6e 01 	sts	0x016E, r30	; 0x80016e <TWI_RxTail>
/home/user/.arduino15/packages/ATTinyCore/hardware/avr/1.5.2/libraries/Wire/src/USI_TWI_Slave/USI_TWI_Slave.c:117
  return TWI_RxBuf[tmptail];                          // Return data from the buffer.
    158a:	f0 e0       	ldi	r31, 0x00	; 0
    158c:	ee 5b       	subi	r30, 0xBE	; 190
    158e:	fe 4f       	sbci	r31, 0xFE	; 254
read():
/home/user/.arduino15/packages/ATTinyCore/hardware/avr/1.5.2/libraries/Wire/src/Wire.cpp:570
    if (BufferLength) {
      value = Buffer[BufferIndex];
      ++BufferIndex;
    } else {
      value = USI_TWI_Receive_Byte();
    1590:	80 81       	ld	r24, Z
    1592:	05 cf       	rjmp	.-502    	; 0x139e <main+0x408>
/home/user/.arduino15/packages/ATTinyCore/hardware/avr/1.5.2/libraries/Wire/src/Wire.cpp:567
  int value = -1;

  // get each successive byte on each call
  if (available()) {
    if (BufferLength) {
      value = Buffer[BufferIndex];
    1594:	e2 2f       	mov	r30, r18
    1596:	f0 e0       	ldi	r31, 0x00	; 0
    1598:	ee 5b       	subi	r30, 0xBE	; 190
    159a:	fe 4f       	sbci	r31, 0xFE	; 254
    159c:	80 81       	ld	r24, Z
/home/user/.arduino15/packages/ATTinyCore/hardware/avr/1.5.2/libraries/Wire/src/Wire.cpp:568
      ++BufferIndex;
    159e:	2f 5f       	subi	r18, 0xFF	; 255
    15a0:	fe ce       	rjmp	.-516    	; 0x139e <main+0x408>
getEtage():
/tmp/arduino_build_376412/sketch/Alt.cpp:26
    if (alti < alt_RdC) {
        alt_RdC = alti;
#ifdef DEBUG_Alt
        Serial.print("rs down, ");
#endif
    } else if (alti > (alt_RdC + 15 * FLOOR_HEIGHT)) {
    15a2:	80 53       	subi	r24, 0x30	; 48
    15a4:	9d 4f       	sbci	r25, 0xFD	; 253
    15a6:	af 4f       	sbci	r26, 0xFF	; 255
    15a8:	bf 4f       	sbci	r27, 0xFF	; 255
    15aa:	84 15       	cp	r24, r4
    15ac:	95 05       	cpc	r25, r5
    15ae:	a6 05       	cpc	r26, r6
    15b0:	b7 05       	cpc	r27, r7
    15b2:	08 f0       	brcs	.+2      	; 0x15b6 <main+0x620>
    15b4:	27 cf       	rjmp	.-434    	; 0x1404 <main+0x46e>
/tmp/arduino_build_376412/sketch/Alt.cpp:27
        alt_RdC = alti - (15 * FLOOR_HEIGHT);
    15b6:	d3 01       	movw	r26, r6
    15b8:	c2 01       	movw	r24, r4
    15ba:	80 5d       	subi	r24, 0xD0	; 208
    15bc:	92 40       	sbci	r25, 0x02	; 2
    15be:	a1 09       	sbc	r26, r1
    15c0:	b1 09       	sbc	r27, r1
    15c2:	80 93 da 01 	sts	0x01DA, r24	; 0x8001da <alt_data+0x5>
    15c6:	90 93 db 01 	sts	0x01DB, r25	; 0x8001db <alt_data+0x6>
    15ca:	a0 93 dc 01 	sts	0x01DC, r26	; 0x8001dc <alt_data+0x7>
    15ce:	b0 93 dd 01 	sts	0x01DD, r27	; 0x8001dd <alt_data+0x8>
    15d2:	18 cf       	rjmp	.-464    	; 0x1404 <main+0x46e>
fastBitWriteSafe():
/media/user/Data/Documents/AVR/AVR/libraries/DigitalIO/src/DigitalPin.h:115
    15d4:	8d 98       	cbi	0x11, 5	; 17
    15d6:	93 cf       	rjmp	.-218    	; 0x14fe <main+0x568>
    15d8:	8d 98       	cbi	0x11, 5	; 17
    15da:	97 cf       	rjmp	.-210    	; 0x150a <main+0x574>
    15dc:	8d 98       	cbi	0x11, 5	; 17
    15de:	9b cf       	rjmp	.-202    	; 0x1516 <main+0x580>
    15e0:	8d 98       	cbi	0x11, 5	; 17
    15e2:	9f cf       	rjmp	.-194    	; 0x1522 <main+0x58c>
    15e4:	8d 98       	cbi	0x11, 5	; 17
    15e6:	a3 cf       	rjmp	.-186    	; 0x152e <main+0x598>
    15e8:	8d 98       	cbi	0x11, 5	; 17
    15ea:	a7 cf       	rjmp	.-178    	; 0x153a <main+0x5a4>
    15ec:	8d 98       	cbi	0x11, 5	; 17
    15ee:	ab cf       	rjmp	.-170    	; 0x1546 <main+0x5b0>
    15f0:	8d 98       	cbi	0x11, 5	; 17
    15f2:	af cf       	rjmp	.-162    	; 0x1552 <main+0x5bc>
write_payload():
/media/user/Data/Documents/AVR/AVR/libraries/RF24/RF24.cpp:252
  }
  while ( blank_len-- ) {
    15f4:	c1 50       	subi	r28, 0x01	; 1
    15f6:	08 f1       	brcs	.+66     	; 0x163a <main+0x6a4>
fastBitWriteSafe():
/media/user/Data/Documents/AVR/AVR/libraries/DigitalIO/src/DigitalPin.h:115
    15f8:	8d 98       	cbi	0x11, 5	; 17
/media/user/Data/Documents/AVR/AVR/libraries/DigitalIO/src/DigitalPin.h:113
  if (address > reinterpret_cast<uint8_t*>(0X3F)) {
    s = SREG;
    cli();
  }
  if (level) {
    *address |= mask;
    15fa:	89 9a       	sbi	0x11, 1	; 17
fastDigitalRead():
/media/user/Data/Documents/AVR/AVR/libraries/DigitalIO/src/DigitalPin.h:128
 * @param[in] pin Arduino pin number
 * @return value read
 */
static inline __attribute__((always_inline))
bool fastDigitalRead(uint8_t pin) {
  return *pinReg(pin) & pinMask(pin);
    15fc:	8f b1       	in	r24, 0x0f	; 15
fastBitWriteSafe():
/media/user/Data/Documents/AVR/AVR/libraries/DigitalIO/src/DigitalPin.h:115
    cli();
  }
  if (level) {
    *address |= mask;
  } else {
    *address &= ~mask;
    15fe:	89 98       	cbi	0x11, 1	; 17
    1600:	8d 98       	cbi	0x11, 5	; 17
/media/user/Data/Documents/AVR/AVR/libraries/DigitalIO/src/DigitalPin.h:113
  if (address > reinterpret_cast<uint8_t*>(0X3F)) {
    s = SREG;
    cli();
  }
  if (level) {
    *address |= mask;
    1602:	89 9a       	sbi	0x11, 1	; 17
fastDigitalRead():
/media/user/Data/Documents/AVR/AVR/libraries/DigitalIO/src/DigitalPin.h:128
 * @param[in] pin Arduino pin number
 * @return value read
 */
static inline __attribute__((always_inline))
bool fastDigitalRead(uint8_t pin) {
  return *pinReg(pin) & pinMask(pin);
    1604:	8f b1       	in	r24, 0x0f	; 15
fastBitWriteSafe():
/media/user/Data/Documents/AVR/AVR/libraries/DigitalIO/src/DigitalPin.h:115
    cli();
  }
  if (level) {
    *address |= mask;
  } else {
    *address &= ~mask;
    1606:	89 98       	cbi	0x11, 1	; 17
    1608:	8d 98       	cbi	0x11, 5	; 17
/media/user/Data/Documents/AVR/AVR/libraries/DigitalIO/src/DigitalPin.h:113
  if (address > reinterpret_cast<uint8_t*>(0X3F)) {
    s = SREG;
    cli();
  }
  if (level) {
    *address |= mask;
    160a:	89 9a       	sbi	0x11, 1	; 17
fastDigitalRead():
/media/user/Data/Documents/AVR/AVR/libraries/DigitalIO/src/DigitalPin.h:128
 * @param[in] pin Arduino pin number
 * @return value read
 */
static inline __attribute__((always_inline))
bool fastDigitalRead(uint8_t pin) {
  return *pinReg(pin) & pinMask(pin);
    160c:	8f b1       	in	r24, 0x0f	; 15
fastBitWriteSafe():
/media/user/Data/Documents/AVR/AVR/libraries/DigitalIO/src/DigitalPin.h:115
    cli();
  }
  if (level) {
    *address |= mask;
  } else {
    *address &= ~mask;
    160e:	89 98       	cbi	0x11, 1	; 17
    1610:	8d 98       	cbi	0x11, 5	; 17
/media/user/Data/Documents/AVR/AVR/libraries/DigitalIO/src/DigitalPin.h:113
  if (address > reinterpret_cast<uint8_t*>(0X3F)) {
    s = SREG;
    cli();
  }
  if (level) {
    *address |= mask;
    1612:	89 9a       	sbi	0x11, 1	; 17
fastDigitalRead():
/media/user/Data/Documents/AVR/AVR/libraries/DigitalIO/src/DigitalPin.h:128
 * @param[in] pin Arduino pin number
 * @return value read
 */
static inline __attribute__((always_inline))
bool fastDigitalRead(uint8_t pin) {
  return *pinReg(pin) & pinMask(pin);
    1614:	8f b1       	in	r24, 0x0f	; 15
fastBitWriteSafe():
/media/user/Data/Documents/AVR/AVR/libraries/DigitalIO/src/DigitalPin.h:115
    cli();
  }
  if (level) {
    *address |= mask;
  } else {
    *address &= ~mask;
    1616:	89 98       	cbi	0x11, 1	; 17
    1618:	8d 98       	cbi	0x11, 5	; 17
/media/user/Data/Documents/AVR/AVR/libraries/DigitalIO/src/DigitalPin.h:113
  if (address > reinterpret_cast<uint8_t*>(0X3F)) {
    s = SREG;
    cli();
  }
  if (level) {
    *address |= mask;
    161a:	89 9a       	sbi	0x11, 1	; 17
fastDigitalRead():
/media/user/Data/Documents/AVR/AVR/libraries/DigitalIO/src/DigitalPin.h:128
 * @param[in] pin Arduino pin number
 * @return value read
 */
static inline __attribute__((always_inline))
bool fastDigitalRead(uint8_t pin) {
  return *pinReg(pin) & pinMask(pin);
    161c:	8f b1       	in	r24, 0x0f	; 15
fastBitWriteSafe():
/media/user/Data/Documents/AVR/AVR/libraries/DigitalIO/src/DigitalPin.h:115
    cli();
  }
  if (level) {
    *address |= mask;
  } else {
    *address &= ~mask;
    161e:	89 98       	cbi	0x11, 1	; 17
    1620:	8d 98       	cbi	0x11, 5	; 17
/media/user/Data/Documents/AVR/AVR/libraries/DigitalIO/src/DigitalPin.h:113
  if (address > reinterpret_cast<uint8_t*>(0X3F)) {
    s = SREG;
    cli();
  }
  if (level) {
    *address |= mask;
    1622:	89 9a       	sbi	0x11, 1	; 17
fastDigitalRead():
/media/user/Data/Documents/AVR/AVR/libraries/DigitalIO/src/DigitalPin.h:128
 * @param[in] pin Arduino pin number
 * @return value read
 */
static inline __attribute__((always_inline))
bool fastDigitalRead(uint8_t pin) {
  return *pinReg(pin) & pinMask(pin);
    1624:	8f b1       	in	r24, 0x0f	; 15
fastBitWriteSafe():
/media/user/Data/Documents/AVR/AVR/libraries/DigitalIO/src/DigitalPin.h:115
    cli();
  }
  if (level) {
    *address |= mask;
  } else {
    *address &= ~mask;
    1626:	89 98       	cbi	0x11, 1	; 17
    1628:	8d 98       	cbi	0x11, 5	; 17
/media/user/Data/Documents/AVR/AVR/libraries/DigitalIO/src/DigitalPin.h:113
  if (address > reinterpret_cast<uint8_t*>(0X3F)) {
    s = SREG;
    cli();
  }
  if (level) {
    *address |= mask;
    162a:	89 9a       	sbi	0x11, 1	; 17
fastDigitalRead():
/media/user/Data/Documents/AVR/AVR/libraries/DigitalIO/src/DigitalPin.h:128
 * @param[in] pin Arduino pin number
 * @return value read
 */
static inline __attribute__((always_inline))
bool fastDigitalRead(uint8_t pin) {
  return *pinReg(pin) & pinMask(pin);
    162c:	8f b1       	in	r24, 0x0f	; 15
fastBitWriteSafe():
/media/user/Data/Documents/AVR/AVR/libraries/DigitalIO/src/DigitalPin.h:115
    cli();
  }
  if (level) {
    *address |= mask;
  } else {
    *address &= ~mask;
    162e:	89 98       	cbi	0x11, 1	; 17
    1630:	8d 98       	cbi	0x11, 5	; 17
/media/user/Data/Documents/AVR/AVR/libraries/DigitalIO/src/DigitalPin.h:113
  if (address > reinterpret_cast<uint8_t*>(0X3F)) {
    s = SREG;
    cli();
  }
  if (level) {
    *address |= mask;
    1632:	89 9a       	sbi	0x11, 1	; 17
fastDigitalRead():
/media/user/Data/Documents/AVR/AVR/libraries/DigitalIO/src/DigitalPin.h:128
 * @param[in] pin Arduino pin number
 * @return value read
 */
static inline __attribute__((always_inline))
bool fastDigitalRead(uint8_t pin) {
  return *pinReg(pin) & pinMask(pin);
    1634:	8f b1       	in	r24, 0x0f	; 15
fastBitWriteSafe():
/media/user/Data/Documents/AVR/AVR/libraries/DigitalIO/src/DigitalPin.h:115
    cli();
  }
  if (level) {
    *address |= mask;
  } else {
    *address &= ~mask;
    1636:	89 98       	cbi	0x11, 1	; 17
    1638:	dd cf       	rjmp	.-70     	; 0x15f4 <main+0x65e>
write_payload():
/media/user/Data/Documents/AVR/AVR/libraries/RF24/RF24.cpp:255
    _SPI.transfer(0);
  }  
  endTransaction();
    163a:	0e 94 69 03 	call	0x6d2	; 0x6d2 <RF24::endTransaction() [clone .constprop.39]>
ce():
/media/user/Data/Documents/AVR/AVR/libraries/RF24/RF24.cpp:63
/****************************************************************************/

void RF24::ce(bool level)
{
  //Allow for 3-pin use on ATTiny
  if (ce_pin != csn_pin) digitalWrite(ce_pin,level);
    163e:	80 91 e0 01 	lds	r24, 0x01E0	; 0x8001e0 <radio+0x1>
    1642:	90 91 e1 01 	lds	r25, 0x01E1	; 0x8001e1 <radio+0x2>
    1646:	89 17       	cp	r24, r25
    1648:	19 f0       	breq	.+6      	; 0x1650 <main+0x6ba>
    164a:	61 e0       	ldi	r22, 0x01	; 1
    164c:	0e 94 bd 01 	call	0x37a	; 0x37a <digitalWrite>
get_status():
/media/user/Data/Documents/AVR/AVR/libraries/RF24/RF24.cpp:348

/****************************************************************************/

uint8_t RF24::get_status(void)
{
  return spiTrans(NOP);
    1650:	8f ef       	ldi	r24, 0xFF	; 255
    1652:	0e 94 73 03 	call	0x6e6	; 0x6e6 <RF24::spiTrans(unsigned char) [clone .constprop.37]>
write():
/media/user/Data/Documents/AVR/AVR/libraries/RF24/RF24.cpp:805
	//Wait until complete or failed
	#if defined (FAILURE_HANDLING) || defined (RF24_LINUX)
		uint32_t timer = millis();
	#endif 
	
	while( ! ( get_status()  & ( _BV(TX_DS) | _BV(MAX_RT) ))) { 
    1656:	80 73       	andi	r24, 0x30	; 48
    1658:	d9 f3       	breq	.-10     	; 0x1650 <main+0x6ba>
ce():
/media/user/Data/Documents/AVR/AVR/libraries/RF24/RF24.cpp:63
/****************************************************************************/

void RF24::ce(bool level)
{
  //Allow for 3-pin use on ATTiny
  if (ce_pin != csn_pin) digitalWrite(ce_pin,level);
    165a:	80 91 e0 01 	lds	r24, 0x01E0	; 0x8001e0 <radio+0x1>
    165e:	90 91 e1 01 	lds	r25, 0x01E1	; 0x8001e1 <radio+0x2>
    1662:	89 17       	cp	r24, r25
    1664:	19 f0       	breq	.+6      	; 0x166c <main+0x6d6>
    1666:	60 e0       	ldi	r22, 0x00	; 0
    1668:	0e 94 bd 01 	call	0x37a	; 0x37a <digitalWrite>
write():
/media/user/Data/Documents/AVR/AVR/libraries/RF24/RF24.cpp:820
		#endif
	}
    
	ce(LOW);

	uint8_t status = write_register(NRF_STATUS,_BV(RX_DR) | _BV(TX_DS) | _BV(MAX_RT) );
    166c:	60 e7       	ldi	r22, 0x70	; 112
    166e:	87 e0       	ldi	r24, 0x07	; 7
    1670:	0e 94 c6 03 	call	0x78c	; 0x78c <RF24::write_register(unsigned char, unsigned char) [clone .constprop.35]>
/media/user/Data/Documents/AVR/AVR/libraries/RF24/RF24.cpp:823

  //Max retries exceeded
  if( status & _BV(MAX_RT)){
    1674:	84 ff       	sbrs	r24, 4
    1676:	07 c0       	rjmp	.+14     	; 0x1686 <main+0x6f0>
flush_tx():
/media/user/Data/Documents/AVR/AVR/libraries/RF24/RF24.cpp:328

/****************************************************************************/

uint8_t RF24::flush_tx(void)
{
  return spiTrans( FLUSH_TX );
    1678:	81 ee       	ldi	r24, 0xE1	; 225
    167a:	0e 94 73 03 	call	0x6e6	; 0x6e6 <RF24::spiTrans(unsigned char) [clone .constprop.37]>
loop():
/media/user/Data/Documents/AVR/AVR/elevator_altimeter/elevator_altimeter.ino:95
        if(!radio.write( &dataToSend, sizeof(dataToSend)))Serial.println("Fail");
    167e:	86 e3       	ldi	r24, 0x36	; 54
    1680:	91 e0       	ldi	r25, 0x01	; 1
    1682:	0e 94 9f 05 	call	0xb3e	; 0xb3e <Print::println(char const*) [clone .constprop.24]>
/media/user/Data/Documents/AVR/AVR/elevator_altimeter/elevator_altimeter.ino:96
        digitalWrite(LED0, LOW);
    1686:	60 e0       	ldi	r22, 0x00	; 0
    1688:	8a e0       	ldi	r24, 0x0A	; 10
    168a:	0e 94 bd 01 	call	0x37a	; 0x37a <digitalWrite>
    168e:	43 ce       	rjmp	.-890    	; 0x1316 <main+0x380>

00001690 <__mulqi3>:
__mulqi3():
/home/jenkins/workspace/avr-gcc-staging/label/debian7-x86_64/gcc-build/avr/avr35/libgcc/../../../../gcc/libgcc/config/avr/lib1funcs.S:224
    1690:	00 24       	eor	r0, r0

00001692 <__mulqi3_loop>:
/home/jenkins/workspace/avr-gcc-staging/label/debian7-x86_64/gcc-build/avr/avr35/libgcc/../../../../gcc/libgcc/config/avr/lib1funcs.S:226
    1692:	80 fd       	sbrc	r24, 0
/home/jenkins/workspace/avr-gcc-staging/label/debian7-x86_64/gcc-build/avr/avr35/libgcc/../../../../gcc/libgcc/config/avr/lib1funcs.S:227
    1694:	06 0e       	add	r0, r22
/home/jenkins/workspace/avr-gcc-staging/label/debian7-x86_64/gcc-build/avr/avr35/libgcc/../../../../gcc/libgcc/config/avr/lib1funcs.S:228
    1696:	66 0f       	add	r22, r22
/home/jenkins/workspace/avr-gcc-staging/label/debian7-x86_64/gcc-build/avr/avr35/libgcc/../../../../gcc/libgcc/config/avr/lib1funcs.S:229
    1698:	11 f0       	breq	.+4      	; 0x169e <__mulqi3_exit>
/home/jenkins/workspace/avr-gcc-staging/label/debian7-x86_64/gcc-build/avr/avr35/libgcc/../../../../gcc/libgcc/config/avr/lib1funcs.S:230
    169a:	86 95       	lsr	r24
/home/jenkins/workspace/avr-gcc-staging/label/debian7-x86_64/gcc-build/avr/avr35/libgcc/../../../../gcc/libgcc/config/avr/lib1funcs.S:231
    169c:	d1 f7       	brne	.-12     	; 0x1692 <__mulqi3_loop>

0000169e <__mulqi3_exit>:
/home/jenkins/workspace/avr-gcc-staging/label/debian7-x86_64/gcc-build/avr/avr35/libgcc/../../../../gcc/libgcc/config/avr/lib1funcs.S:233
    169e:	80 2d       	mov	r24, r0
/home/jenkins/workspace/avr-gcc-staging/label/debian7-x86_64/gcc-build/avr/avr35/libgcc/../../../../gcc/libgcc/config/avr/lib1funcs.S:234
    16a0:	08 95       	ret

000016a2 <__udivmodsi4>:
__udivmodsi4():
/home/jenkins/workspace/avr-gcc-staging/label/debian7-x86_64/gcc-build/avr/avr35/libgcc/../../../../gcc/libgcc/config/avr/lib1funcs.S:1638
    16a2:	a1 e2       	ldi	r26, 0x21	; 33
/home/jenkins/workspace/avr-gcc-staging/label/debian7-x86_64/gcc-build/avr/avr35/libgcc/../../../../gcc/libgcc/config/avr/lib1funcs.S:1639
    16a4:	1a 2e       	mov	r1, r26
/home/jenkins/workspace/avr-gcc-staging/label/debian7-x86_64/gcc-build/avr/avr35/libgcc/../../../../gcc/libgcc/config/avr/lib1funcs.S:1640
    16a6:	aa 1b       	sub	r26, r26
/home/jenkins/workspace/avr-gcc-staging/label/debian7-x86_64/gcc-build/avr/avr35/libgcc/../../../../gcc/libgcc/config/avr/lib1funcs.S:1641
    16a8:	bb 1b       	sub	r27, r27
/home/jenkins/workspace/avr-gcc-staging/label/debian7-x86_64/gcc-build/avr/avr35/libgcc/../../../../gcc/libgcc/config/avr/lib1funcs.S:1642
    16aa:	fd 01       	movw	r30, r26
/home/jenkins/workspace/avr-gcc-staging/label/debian7-x86_64/gcc-build/avr/avr35/libgcc/../../../../gcc/libgcc/config/avr/lib1funcs.S:1644
    16ac:	0d c0       	rjmp	.+26     	; 0x16c8 <__udivmodsi4_ep>

000016ae <__udivmodsi4_loop>:
/home/jenkins/workspace/avr-gcc-staging/label/debian7-x86_64/gcc-build/avr/avr35/libgcc/../../../../gcc/libgcc/config/avr/lib1funcs.S:1646
    16ae:	aa 1f       	adc	r26, r26
/home/jenkins/workspace/avr-gcc-staging/label/debian7-x86_64/gcc-build/avr/avr35/libgcc/../../../../gcc/libgcc/config/avr/lib1funcs.S:1647
    16b0:	bb 1f       	adc	r27, r27
/home/jenkins/workspace/avr-gcc-staging/label/debian7-x86_64/gcc-build/avr/avr35/libgcc/../../../../gcc/libgcc/config/avr/lib1funcs.S:1648
    16b2:	ee 1f       	adc	r30, r30
/home/jenkins/workspace/avr-gcc-staging/label/debian7-x86_64/gcc-build/avr/avr35/libgcc/../../../../gcc/libgcc/config/avr/lib1funcs.S:1649
    16b4:	ff 1f       	adc	r31, r31
/home/jenkins/workspace/avr-gcc-staging/label/debian7-x86_64/gcc-build/avr/avr35/libgcc/../../../../gcc/libgcc/config/avr/lib1funcs.S:1650
    16b6:	a2 17       	cp	r26, r18
/home/jenkins/workspace/avr-gcc-staging/label/debian7-x86_64/gcc-build/avr/avr35/libgcc/../../../../gcc/libgcc/config/avr/lib1funcs.S:1651
    16b8:	b3 07       	cpc	r27, r19
/home/jenkins/workspace/avr-gcc-staging/label/debian7-x86_64/gcc-build/avr/avr35/libgcc/../../../../gcc/libgcc/config/avr/lib1funcs.S:1652
    16ba:	e4 07       	cpc	r30, r20
/home/jenkins/workspace/avr-gcc-staging/label/debian7-x86_64/gcc-build/avr/avr35/libgcc/../../../../gcc/libgcc/config/avr/lib1funcs.S:1653
    16bc:	f5 07       	cpc	r31, r21
/home/jenkins/workspace/avr-gcc-staging/label/debian7-x86_64/gcc-build/avr/avr35/libgcc/../../../../gcc/libgcc/config/avr/lib1funcs.S:1654
    16be:	20 f0       	brcs	.+8      	; 0x16c8 <__udivmodsi4_ep>
/home/jenkins/workspace/avr-gcc-staging/label/debian7-x86_64/gcc-build/avr/avr35/libgcc/../../../../gcc/libgcc/config/avr/lib1funcs.S:1655
    16c0:	a2 1b       	sub	r26, r18
/home/jenkins/workspace/avr-gcc-staging/label/debian7-x86_64/gcc-build/avr/avr35/libgcc/../../../../gcc/libgcc/config/avr/lib1funcs.S:1656
    16c2:	b3 0b       	sbc	r27, r19
/home/jenkins/workspace/avr-gcc-staging/label/debian7-x86_64/gcc-build/avr/avr35/libgcc/../../../../gcc/libgcc/config/avr/lib1funcs.S:1657
    16c4:	e4 0b       	sbc	r30, r20
/home/jenkins/workspace/avr-gcc-staging/label/debian7-x86_64/gcc-build/avr/avr35/libgcc/../../../../gcc/libgcc/config/avr/lib1funcs.S:1658
    16c6:	f5 0b       	sbc	r31, r21

000016c8 <__udivmodsi4_ep>:
/home/jenkins/workspace/avr-gcc-staging/label/debian7-x86_64/gcc-build/avr/avr35/libgcc/../../../../gcc/libgcc/config/avr/lib1funcs.S:1660
    16c8:	66 1f       	adc	r22, r22
/home/jenkins/workspace/avr-gcc-staging/label/debian7-x86_64/gcc-build/avr/avr35/libgcc/../../../../gcc/libgcc/config/avr/lib1funcs.S:1661
    16ca:	77 1f       	adc	r23, r23
/home/jenkins/workspace/avr-gcc-staging/label/debian7-x86_64/gcc-build/avr/avr35/libgcc/../../../../gcc/libgcc/config/avr/lib1funcs.S:1662
    16cc:	88 1f       	adc	r24, r24
/home/jenkins/workspace/avr-gcc-staging/label/debian7-x86_64/gcc-build/avr/avr35/libgcc/../../../../gcc/libgcc/config/avr/lib1funcs.S:1663
    16ce:	99 1f       	adc	r25, r25
/home/jenkins/workspace/avr-gcc-staging/label/debian7-x86_64/gcc-build/avr/avr35/libgcc/../../../../gcc/libgcc/config/avr/lib1funcs.S:1664
    16d0:	1a 94       	dec	r1
/home/jenkins/workspace/avr-gcc-staging/label/debian7-x86_64/gcc-build/avr/avr35/libgcc/../../../../gcc/libgcc/config/avr/lib1funcs.S:1665
    16d2:	69 f7       	brne	.-38     	; 0x16ae <__udivmodsi4_loop>
/home/jenkins/workspace/avr-gcc-staging/label/debian7-x86_64/gcc-build/avr/avr35/libgcc/../../../../gcc/libgcc/config/avr/lib1funcs.S:1667
    16d4:	60 95       	com	r22
/home/jenkins/workspace/avr-gcc-staging/label/debian7-x86_64/gcc-build/avr/avr35/libgcc/../../../../gcc/libgcc/config/avr/lib1funcs.S:1668
    16d6:	70 95       	com	r23
/home/jenkins/workspace/avr-gcc-staging/label/debian7-x86_64/gcc-build/avr/avr35/libgcc/../../../../gcc/libgcc/config/avr/lib1funcs.S:1669
    16d8:	80 95       	com	r24
/home/jenkins/workspace/avr-gcc-staging/label/debian7-x86_64/gcc-build/avr/avr35/libgcc/../../../../gcc/libgcc/config/avr/lib1funcs.S:1670
    16da:	90 95       	com	r25
/home/jenkins/workspace/avr-gcc-staging/label/debian7-x86_64/gcc-build/avr/avr35/libgcc/../../../../gcc/libgcc/config/avr/lib1funcs.S:1672
    16dc:	9b 01       	movw	r18, r22
/home/jenkins/workspace/avr-gcc-staging/label/debian7-x86_64/gcc-build/avr/avr35/libgcc/../../../../gcc/libgcc/config/avr/lib1funcs.S:1674
    16de:	ac 01       	movw	r20, r24
/home/jenkins/workspace/avr-gcc-staging/label/debian7-x86_64/gcc-build/avr/avr35/libgcc/../../../../gcc/libgcc/config/avr/lib1funcs.S:1676
    16e0:	bd 01       	movw	r22, r26
/home/jenkins/workspace/avr-gcc-staging/label/debian7-x86_64/gcc-build/avr/avr35/libgcc/../../../../gcc/libgcc/config/avr/lib1funcs.S:1678
    16e2:	cf 01       	movw	r24, r30
/home/jenkins/workspace/avr-gcc-staging/label/debian7-x86_64/gcc-build/avr/avr35/libgcc/../../../../gcc/libgcc/config/avr/lib1funcs.S:1680
    16e4:	08 95       	ret

000016e6 <__tablejump2__>:
__tablejump2__():
/home/jenkins/workspace/avr-gcc-staging/label/debian7-x86_64/gcc-build/avr/avr35/libgcc/../../../../gcc/libgcc/config/avr/lib1funcs.S:2296
    16e6:	ee 0f       	add	r30, r30
/home/jenkins/workspace/avr-gcc-staging/label/debian7-x86_64/gcc-build/avr/avr35/libgcc/../../../../gcc/libgcc/config/avr/lib1funcs.S:2297
    16e8:	ff 1f       	adc	r31, r31
/home/jenkins/workspace/avr-gcc-staging/label/debian7-x86_64/gcc-build/avr/avr35/libgcc/../../../../gcc/libgcc/config/avr/lib1funcs.S:2328
    16ea:	05 90       	lpm	r0, Z+
/home/jenkins/workspace/avr-gcc-staging/label/debian7-x86_64/gcc-build/avr/avr35/libgcc/../../../../gcc/libgcc/config/avr/lib1funcs.S:2329
    16ec:	f4 91       	lpm	r31, Z
/home/jenkins/workspace/avr-gcc-staging/label/debian7-x86_64/gcc-build/avr/avr35/libgcc/../../../../gcc/libgcc/config/avr/lib1funcs.S:2330
    16ee:	e0 2d       	mov	r30, r0
/home/jenkins/workspace/avr-gcc-staging/label/debian7-x86_64/gcc-build/avr/avr35/libgcc/../../../../gcc/libgcc/config/avr/lib1funcs.S:2331
    16f0:	09 94       	ijmp

000016f2 <_exit>:
exit():
/home/jenkins/workspace/avr-gcc-staging/label/debian7-x86_64/gcc-build/avr/avr35/libgcc/../../../../gcc/libgcc/config/avr/lib1funcs.S:2278
    16f2:	f8 94       	cli

000016f4 <__stop_program>:
__stop_program():
/home/jenkins/workspace/avr-gcc-staging/label/debian7-x86_64/gcc-build/avr/avr35/libgcc/../../../../gcc/libgcc/config/avr/lib1funcs.S:2280
    16f4:	ff cf       	rjmp	.-2      	; 0x16f4 <__stop_program>
