   1               		.file	"main.c"
   2               	__SREG__ = 0x3f
   3               	__SP_H__ = 0x3e
   4               	__SP_L__ = 0x3d
   5               	__CCP__  = 0x34
   6               	__tmp_reg__ = 0
   7               	__zero_reg__ = 1
  15               	.Ltext0:
  16               	.global	uart_init
  18               	uart_init:
  19               	.LFB5:
  20               	.LM1:
  21               	/* prologue: function */
  22               	/* frame size = 0 */
  23               	.LM2:
  24 0000 1092 C500 		sts 197,__zero_reg__
  25               	.LM3:
  26 0004 8FEC      		ldi r24,lo8(-49)
  27 0006 8093 C400 		sts 196,r24
  28               	.LM4:
  29 000a E1EC      		ldi r30,lo8(193)
  30 000c F0E0      		ldi r31,hi8(193)
  31 000e 8081      		ld r24,Z
  32 0010 8869      		ori r24,lo8(-104)
  33 0012 8083      		st Z,r24
  34               	.LM5:
  35 0014 E2EC      		ldi r30,lo8(194)
  36 0016 F0E0      		ldi r31,hi8(194)
  37 0018 8081      		ld r24,Z
  38 001a 8660      		ori r24,lo8(6)
  39 001c 8083      		st Z,r24
  40               	/* epilogue start */
  41               	.LM6:
  42 001e 0895      		ret
  43               	.LFE5:
  45               	.global	uart_transmit
  47               	uart_transmit:
  48               	.LFB6:
  49               	.LM7:
  50               	.LVL0:
  51               	/* prologue: function */
  52               	/* frame size = 0 */
  53 0020 982F      		mov r25,r24
  54               	.LVL1:
  55               	.L4:
  56               	.LM8:
  57 0022 8091 C000 		lds r24,192
  58 0026 85FF      		sbrs r24,5
  59 0028 00C0      		rjmp .L4
  60               	.LM9:
  61 002a 9093 C600 		sts 198,r25
  62               	/* epilogue start */
  63               	.LM10:
  64 002e 0895      		ret
  65               	.LFE6:
  67               	.global	uart_transmitMult
  69               	uart_transmitMult:
  70               	.LFB7:
  71               	.LM11:
  72               	.LVL2:
  73               	/* prologue: function */
  74               	/* frame size = 0 */
  75 0030 FC01      		movw r30,r24
  76 0032 00C0      		rjmp .L8
  77               	.LVL3:
  78               	.L11:
  79               	.LBB25:
  80               	.LBB26:
  81               	.LM12:
  82 0034 8091 C000 		lds r24,192
  83 0038 85FF      		sbrs r24,5
  84 003a 00C0      		rjmp .L11
  85               	.LBE26:
  86               	.LBE25:
  87               	.LM13:
  88 003c 3196      		adiw r30,1
  89               	.LBB28:
  90               	.LBB27:
  91               	.LM14:
  92 003e 9093 C600 		sts 198,r25
  93               	.LVL4:
  94               	.L8:
  95               	.LBE27:
  96               	.LBE28:
  97               	.LM15:
  98 0042 9081      		ld r25,Z
  99 0044 9923      		tst r25
 100 0046 01F4      		brne .L11
 101               	/* epilogue start */
 102               	.LM16:
 103 0048 0895      		ret
 104               	.LFE7:
 106               	.global	uart_recieve
 108               	uart_recieve:
 109               	.LFB8:
 110               	.LM17:
 111               	/* prologue: function */
 112               	/* frame size = 0 */
 113               	.LM18:
 114 004a 8091 C000 		lds r24,192
 115               	.LM19:
 116 004e 8091 C600 		lds r24,198
 117               	/* epilogue start */
 118               	.LM20:
 119 0052 0895      		ret
 120               	.LFE8:
 122               	.global	spi_masterInit
 124               	spi_masterInit:
 125               	.LFB9:
 126               	.LM21:
 127               	/* prologue: function */
 128               	/* frame size = 0 */
 129               	.LM22:
 130 0054 8CE2      		ldi r24,lo8(44)
 131 0056 84B9      		out 36-32,r24
 132               	.LM23:
 133 0058 81E5      		ldi r24,lo8(81)
 134 005a 8CBD      		out 76-32,r24
 135               	.LM24:
 136 005c 2A9A      		sbi 37-32,2
 137               	/* epilogue start */
 138               	.LM25:
 139 005e 0895      		ret
 140               	.LFE9:
 142               	.global	spi_rxtx
 144               	spi_rxtx:
 145               	.LFB10:
 146               	.LM26:
 147               	.LVL5:
 148               	/* prologue: function */
 149               	/* frame size = 0 */
 150               	.LM27:
 151 0060 8EBD      		out 78-32,r24
 152               	.L18:
 153               	.LM28:
 154 0062 0DB4      		in __tmp_reg__,77-32
 155 0064 07FE      		sbrs __tmp_reg__,7
 156 0066 00C0      		rjmp .L18
 157               	.LM29:
 158 0068 8EB5      		in r24,78-32
 159               	.LVL6:
 160               	/* epilogue start */
 161               	.LM30:
 162 006a 0895      		ret
 163               	.LFE10:
 165               	.global	adc_v
 167               	adc_v:
 168               	.LFB11:
 169               	.LM31:
 170               	/* prologue: function */
 171               	/* frame size = 0 */
 172               	.LM32:
 173 006c 2A98      		cbi 37-32,2
 174               	.LBB29:
 175               	.LBB30:
 176               	.LM33:
 177 006e 8CE0      		ldi r24,lo8(12)
 178 0070 8EBD      		out 78-32,r24
 179               	.L22:
 180               	.LM34:
 181 0072 0DB4      		in __tmp_reg__,77-32
 182 0074 07FE      		sbrs __tmp_reg__,7
 183 0076 00C0      		rjmp .L22
 184               	.LM35:
 185 0078 8EB5      		in r24,78-32
 186               	.LBE30:
 187               	.LBE29:
 188               	.LBB31:
 189               	.LBB32:
 190               	.LM36:
 191 007a 80E8      		ldi r24,lo8(-128)
 192 007c 8EBD      		out 78-32,r24
 193               	.L23:
 194               	.LM37:
 195 007e 0DB4      		in __tmp_reg__,77-32
 196 0080 07FE      		sbrs __tmp_reg__,7
 197 0082 00C0      		rjmp .L23
 198               	.LM38:
 199 0084 2EB5      		in r18,78-32
 200               	.LBE32:
 201               	.LBE31:
 202               	.LBB33:
 203               	.LBB34:
 204               	.LM39:
 205 0086 1EBC      		out 78-32,__zero_reg__
 206               	.L24:
 207               	.LM40:
 208 0088 0DB4      		in __tmp_reg__,77-32
 209 008a 07FE      		sbrs __tmp_reg__,7
 210 008c 00C0      		rjmp .L24
 211               	.LM41:
 212 008e 8EB5      		in r24,78-32
 213               	.LBE34:
 214               	.LBE33:
 215               	.LM42:
 216 0090 30E0      		ldi r19,lo8(0)
 217 0092 2F70      		andi r18,lo8(15)
 218 0094 3070      		andi r19,hi8(15)
 219 0096 322F      		mov r19,r18
 220 0098 2227      		clr r18
 221               	.LM43:
 222 009a 2A9A      		sbi 37-32,2
 223 009c 90E0      		ldi r25,lo8(0)
 224 009e 282B      		or r18,r24
 225 00a0 392B      		or r19,r25
 226               	.LM44:
 227 00a2 C901      		movw r24,r18
 228               	/* epilogue start */
 229 00a4 0895      		ret
 230               	.LFE11:
 232               	.global	adc_i
 234               	adc_i:
 235               	.LFB12:
 236               	.LM45:
 237               	/* prologue: function */
 238               	/* frame size = 0 */
 239               	.LM46:
 240 00a6 2A98      		cbi 37-32,2
 241               	.LBB35:
 242               	.LBB36:
 243               	.LM47:
 244 00a8 89E0      		ldi r24,lo8(9)
 245 00aa 8EBD      		out 78-32,r24
 246               	.L30:
 247               	.LM48:
 248 00ac 0DB4      		in __tmp_reg__,77-32
 249 00ae 07FE      		sbrs __tmp_reg__,7
 250 00b0 00C0      		rjmp .L30
 251               	.LM49:
 252 00b2 8EB5      		in r24,78-32
 253               	.LBE36:
 254               	.LBE35:
 255               	.LBB37:
 256               	.LBB38:
 257               	.LM50:
 258 00b4 80E8      		ldi r24,lo8(-128)
 259 00b6 8EBD      		out 78-32,r24
 260               	.L31:
 261               	.LM51:
 262 00b8 0DB4      		in __tmp_reg__,77-32
 263 00ba 07FE      		sbrs __tmp_reg__,7
 264 00bc 00C0      		rjmp .L31
 265               	.LM52:
 266 00be 4EB5      		in r20,78-32
 267               	.LVL7:
 268               	.LBE38:
 269               	.LBE37:
 270               	.LBB39:
 271               	.LBB40:
 272               	.LM53:
 273 00c0 1EBC      		out 78-32,__zero_reg__
 274               	.L32:
 275               	.LM54:
 276 00c2 0DB4      		in __tmp_reg__,77-32
 277 00c4 07FE      		sbrs __tmp_reg__,7
 278 00c6 00C0      		rjmp .L32
 279               	.LM55:
 280 00c8 2EB5      		in r18,78-32
 281               	.LBE40:
 282               	.LBE39:
 283               	.LM56:
 284 00ca 842F      		mov r24,r20
 285 00cc 90E0      		ldi r25,lo8(0)
 286               	.LVL8:
 287 00ce 8F70      		andi r24,lo8(15)
 288 00d0 9070      		andi r25,hi8(15)
 289               	.LVL9:
 290 00d2 982F      		mov r25,r24
 291 00d4 8827      		clr r24
 292               	.LVL10:
 293               	.LM57:
 294 00d6 30E0      		ldi r19,lo8(0)
 295 00d8 822B      		or r24,r18
 296 00da 932B      		or r25,r19
 297               	.LM58:
 298 00dc 8095      		com r24
 299 00de 9095      		com r25
 300               	.LM59:
 301 00e0 2A9A      		sbi 37-32,2
 302               	.LM60:
 303 00e2 44FF      		sbrs r20,4
 304 00e4 00C0      		rjmp .L33
 305               	.LVL11:
 306 00e6 2227      		clr r18
 307 00e8 3327      		clr r19
 308 00ea 281B      		sub r18,r24
 309 00ec 390B      		sbc r19,r25
 310 00ee 00C0      		rjmp .L34
 311               	.L33:
 312               	.LM61:
 313 00f0 9C01      		movw r18,r24
 314               	.L34:
 315               	.LM62:
 316 00f2 C901      		movw r24,r18
 317               	.LVL12:
 318               	/* epilogue start */
 319 00f4 0895      		ret
 320               	.LFE12:
 322               	.global	acquisition
 324               	acquisition:
 325               	.LFB13:
 326               	.LM63:
 327               	.LVL13:
 328 00f6 9F92      		push r9
 329 00f8 AF92      		push r10
 330 00fa BF92      		push r11
 331 00fc CF92      		push r12
 332 00fe DF92      		push r13
 333 0100 EF92      		push r14
 334 0102 FF92      		push r15
 335 0104 0F93      		push r16
 336 0106 1F93      		push r17
 337 0108 CF93      		push r28
 338 010a DF93      		push r29
 339               	/* prologue: function */
 340               	/* frame size = 0 */
 341 010c 982E      		mov r9,r24
 342               	.LM64:
 343 010e C82F      		mov r28,r24
 344 0110 D0E0      		ldi r29,lo8(0)
 345 0112 FE01      		movw r30,r28
 346 0114 54E0      		ldi r21,4
 347 0116 EE0F      	1:	lsl r30
 348 0118 FF1F      		rol r31
 349 011a 5A95      		dec r21
 350 011c 01F4      		brne 1b
 351 011e E050      		subi r30,lo8(-(Sample))
 352 0120 F040      		sbci r31,hi8(-(Sample))
 353 0122 8081      		ld r24,Z
 354 0124 9181      		ldd r25,Z+1
 355               	.LVL14:
 356 0126 FE01      		movw r30,r28
 357 0128 44E0      		ldi r20,4
 358 012a EE0F      	1:	lsl r30
 359 012c FF1F      		rol r31
 360 012e 4A95      		dec r20
 361 0130 01F4      		brne 1b
 362 0132 E050      		subi r30,lo8(-(Sample+2))
 363 0134 F040      		sbci r31,hi8(-(Sample+2))
 364 0136 9183      		std Z+1,r25
 365 0138 8083      		st Z,r24
 366               	.LM65:
 367 013a 9920      		tst r9
 368 013c 01F0      		breq .L41
 369 013e 21E0      		ldi r18,lo8(1)
 370 0140 9216      		cp r9,r18
 371 0142 01F4      		brne .L49
 372 0144 00C0      		rjmp .L51
 373               	.L41:
 374               	.LM66:
 375 0146 0E94 0000 		call adc_v
 376 014a 9093 0000 		sts (Sample)+1,r25
 377 014e 8093 0000 		sts Sample,r24
 378 0152 00C0      		rjmp .L43
 379               	.L51:
 380               	.LM67:
 381 0154 0E94 0000 		call adc_i
 382 0158 9093 0000 		sts (Sample+16)+1,r25
 383 015c 8093 0000 		sts Sample+16,r24
 384 0160 00C0      		rjmp .L43
 385               	.L49:
 386               	.LM68:
 387 0162 8091 0000 		lds r24,Flags
 388 0166 8160      		ori r24,lo8(1)
 389 0168 8093 0000 		sts Flags,r24
 390               	.L43:
 391               	.LM69:
 392 016c 5E01      		movw r10,r28
 393 016e 34E0      		ldi r19,4
 394 0170 AA0C      	1:	lsl r10
 395 0172 BB1C      		rol r11
 396 0174 3A95      		dec r19
 397 0176 01F4      		brne 1b
 398 0178 80E0      		ldi r24,lo8(Sample+4)
 399 017a 90E0      		ldi r25,hi8(Sample+4)
 400 017c A80E      		add r10,r24
 401 017e B91E      		adc r11,r25
 402 0180 F501      		movw r30,r10
 403 0182 8081      		ld r24,Z
 404 0184 9181      		ldd r25,Z+1
 405 0186 A281      		ldd r26,Z+2
 406 0188 B381      		ldd r27,Z+3
 407 018a FE01      		movw r30,r28
 408 018c 24E0      		ldi r18,4
 409 018e EE0F      	1:	lsl r30
 410 0190 FF1F      		rol r31
 411 0192 2A95      		dec r18
 412 0194 01F4      		brne 1b
 413 0196 E050      		subi r30,lo8(-(Sample+8))
 414 0198 F040      		sbci r31,hi8(-(Sample+8))
 415 019a 8083      		st Z,r24
 416 019c 9183      		std Z+1,r25
 417 019e A283      		std Z+2,r26
 418 01a0 B383      		std Z+3,r27
 419               	.LM70:
 420 01a2 F501      		movw r30,r10
 421 01a4 6081      		ld r22,Z
 422 01a6 7181      		ldd r23,Z+1
 423 01a8 8281      		ldd r24,Z+2
 424 01aa 9381      		ldd r25,Z+3
 425 01ac 2FEF      		ldi r18,lo8(255)
 426 01ae 30E0      		ldi r19,hi8(255)
 427 01b0 40E0      		ldi r20,hlo8(255)
 428 01b2 50E0      		ldi r21,hhi8(255)
 429 01b4 0E94 0000 		call __mulsi3
 430 01b8 7B01      		movw r14,r22
 431 01ba 8C01      		movw r16,r24
 432               	.LVL15:
 433               	.LM71:
 434 01bc EF2C      		mov r14,r15
 435 01be F02E      		mov r15,r16
 436 01c0 012F      		mov r16,r17
 437 01c2 1127      		clr r17
 438 01c4 07FD      		sbrc r16,7
 439 01c6 1A95      		dec r17
 440               	.LVL16:
 441               	.LM72:
 442 01c8 6E01      		movw r12,r28
 443 01ca B4E0      		ldi r27,4
 444 01cc CC0C      	1:	lsl r12
 445 01ce DD1C      		rol r13
 446 01d0 BA95      		dec r27
 447 01d2 01F4      		brne 1b
 448 01d4 80E0      		ldi r24,lo8(Sample)
 449 01d6 90E0      		ldi r25,hi8(Sample)
 450 01d8 C80E      		add r12,r24
 451 01da D91E      		adc r13,r25
 452 01dc F601      		movw r30,r12
 453 01de 6081      		ld r22,Z
 454 01e0 7181      		ldd r23,Z+1
 455 01e2 FE01      		movw r30,r28
 456 01e4 A4E0      		ldi r26,4
 457 01e6 EE0F      	1:	lsl r30
 458 01e8 FF1F      		rol r31
 459 01ea AA95      		dec r26
 460 01ec 01F4      		brne 1b
 461 01ee E050      		subi r30,lo8(-(Sample+2))
 462 01f0 F040      		sbci r31,hi8(-(Sample+2))
 463 01f2 2081      		ld r18,Z
 464 01f4 3181      		ldd r19,Z+1
 465               	.LM73:
 466 01f6 621B      		sub r22,r18
 467 01f8 730B      		sbc r23,r19
 468 01fa 8827      		clr r24
 469 01fc 77FD      		sbrc r23,7
 470 01fe 8095      		com r24
 471 0200 982F      		mov r25,r24
 472 0202 2FEF      		ldi r18,lo8(255)
 473 0204 30E0      		ldi r19,hi8(255)
 474 0206 40E0      		ldi r20,hlo8(255)
 475 0208 50E0      		ldi r21,hhi8(255)
 476 020a 0E94 0000 		call __mulsi3
 477 020e E60E      		add r14,r22
 478 0210 F71E      		adc r15,r23
 479 0212 081F      		adc r16,r24
 480 0214 191F      		adc r17,r25
 481               	.LM74:
 482 0216 F501      		movw r30,r10
 483 0218 E082      		st Z,r14
 484 021a F182      		std Z+1,r15
 485 021c 0283      		std Z+2,r16
 486 021e 1383      		std Z+3,r17
 487               	.LM75:
 488 0220 8081      		ld r24,Z
 489 0222 9181      		ldd r25,Z+1
 490 0224 A281      		ldd r26,Z+2
 491 0226 B381      		ldd r27,Z+3
 492 0228 F601      		movw r30,r12
 493 022a 8487      		std Z+12,r24
 494 022c 9587      		std Z+13,r25
 495 022e A687      		std Z+14,r26
 496 0230 B787      		std Z+15,r27
 497               	.LM76:
 498 0232 8081      		ld r24,Z
 499 0234 9181      		ldd r25,Z+1
 500 0236 AA27      		clr r26
 501 0238 97FD      		sbrc r25,7
 502 023a A095      		com r26
 503 023c BA2F      		mov r27,r26
 504 023e 8487      		std Z+12,r24
 505 0240 9587      		std Z+13,r25
 506 0242 A687      		std Z+14,r26
 507 0244 B787      		std Z+15,r27
 508               	.LM77:
 509 0246 2485      		ldd r18,Z+12
 510 0248 3585      		ldd r19,Z+13
 511 024a 4685      		ldd r20,Z+14
 512 024c 5785      		ldd r21,Z+15
 513 024e 6485      		ldd r22,Z+12
 514 0250 7585      		ldd r23,Z+13
 515 0252 8685      		ldd r24,Z+14
 516 0254 9785      		ldd r25,Z+15
 517 0256 F6E0      		ldi r31,6
 518 0258 9595      	1:	asr r25
 519 025a 8795      		ror r24
 520 025c 7795      		ror r23
 521 025e 6795      		ror r22
 522 0260 FA95      		dec r31
 523 0262 01F4      		brne 1b
 524 0264 E6E0      		ldi r30,6
 525 0266 5595      	1:	asr r21
 526 0268 4795      		ror r20
 527 026a 3795      		ror r19
 528 026c 2795      		ror r18
 529 026e EA95      		dec r30
 530 0270 01F4      		brne 1b
 531 0272 0E94 0000 		call __mulsi3
 532               	.LM78:
 533 0276 9920      		tst r9
 534 0278 01F0      		breq .L45
 535 027a F1E0      		ldi r31,lo8(1)
 536 027c 9F16      		cp r9,r31
 537 027e 01F4      		brne .L50
 538 0280 00C0      		rjmp .L52
 539               	.L45:
 540               	.LM79:
 541 0282 6093 0000 		sts Acc,r22
 542 0286 7093 0000 		sts (Acc)+1,r23
 543 028a 8093 0000 		sts (Acc)+2,r24
 544 028e 9093 0000 		sts (Acc)+3,r25
 545 0292 00C0      		rjmp .L47
 546               	.L52:
 547               	.LM80:
 548 0294 6093 0000 		sts Acc+4,r22
 549 0298 7093 0000 		sts (Acc+4)+1,r23
 550 029c 8093 0000 		sts (Acc+4)+2,r24
 551 02a0 9093 0000 		sts (Acc+4)+3,r25
 552 02a4 00C0      		rjmp .L47
 553               	.L50:
 554               	.LM81:
 555 02a6 8091 0000 		lds r24,Flags
 556 02aa 8160      		ori r24,lo8(1)
 557 02ac 8093 0000 		sts Flags,r24
 558               	.L47:
 559               	.LM82:
 560 02b0 2091 0000 		lds r18,tcnt
 561 02b4 3091 0000 		lds r19,(tcnt)+1
 562 02b8 54E0      		ldi r21,4
 563 02ba CC0F      	1:	lsl r28
 564 02bc DD1F      		rol r29
 565 02be 5A95      		dec r21
 566 02c0 01F4      		brne 1b
 567 02c2 C050      		subi r28,lo8(-(Sample))
 568 02c4 D040      		sbci r29,hi8(-(Sample))
 569 02c6 8C85      		ldd r24,Y+12
 570 02c8 9D85      		ldd r25,Y+13
 571 02ca AE85      		ldd r26,Y+14
 572 02cc BF85      		ldd r27,Y+15
 573 02ce F901      		movw r30,r18
 574 02d0 EE0F      		lsl r30
 575 02d2 FF1F      		rol r31
 576 02d4 EE0F      		lsl r30
 577 02d6 FF1F      		rol r31
 578 02d8 E050      		subi r30,lo8(-(testArr))
 579 02da F040      		sbci r31,hi8(-(testArr))
 580 02dc 8083      		st Z,r24
 581 02de 9183      		std Z+1,r25
 582 02e0 A283      		std Z+2,r26
 583 02e2 B383      		std Z+3,r27
 584 02e4 2F5F      		subi r18,lo8(-(1))
 585 02e6 3F4F      		sbci r19,hi8(-(1))
 586 02e8 3093 0000 		sts (tcnt)+1,r19
 587 02ec 2093 0000 		sts tcnt,r18
 588               	/* epilogue start */
 589               	.LM83:
 590 02f0 DF91      		pop r29
 591 02f2 CF91      		pop r28
 592 02f4 1F91      		pop r17
 593 02f6 0F91      		pop r16
 594 02f8 FF90      		pop r15
 595 02fa EF90      		pop r14
 596               	.LVL17:
 597 02fc DF90      		pop r13
 598 02fe CF90      		pop r12
 599 0300 BF90      		pop r11
 600 0302 AF90      		pop r10
 601 0304 9F90      		pop r9
 602               	.LVL18:
 603 0306 0895      		ret
 604               	.LFE13:
 606               	.global	__vector_18
 608               	__vector_18:
 609               	.LFB15:
 610               	.LM84:
 611 0308 1F92      		push __zero_reg__
 612 030a 0F92      		push r0
 613 030c 0FB6      		in r0,__SREG__
 614 030e 0F92      		push r0
 615 0310 1124      		clr __zero_reg__
 616 0312 8F93      		push r24
 617               	/* prologue: Signal */
 618               	/* frame size = 0 */
 619               	.LBB41:
 620               	.LBB42:
 621               	.LM85:
 622 0314 8091 C000 		lds r24,192
 623               	.LM86:
 624 0318 8091 C600 		lds r24,198
 625               	.LBE42:
 626               	.LBE41:
 627               	.LM87:
 628 031c 8093 0000 		sts data,r24
 629               	.LM88:
 630 0320 8091 0000 		lds r24,Flags
 631 0324 8460      		ori r24,lo8(4)
 632 0326 8093 0000 		sts Flags,r24
 633               	/* epilogue start */
 634               	.LM89:
 635 032a 8F91      		pop r24
 636 032c 0F90      		pop r0
 637 032e 0FBE      		out __SREG__,r0
 638 0330 0F90      		pop r0
 639 0332 1F90      		pop __zero_reg__
 640 0334 1895      		reti
 641               	.LFE15:
 643               	.global	__vector_14
 645               	__vector_14:
 646               	.LFB16:
 647               	.LM90:
 648 0336 1F92      		push __zero_reg__
 649 0338 0F92      		push r0
 650 033a 0FB6      		in r0,__SREG__
 651 033c 0F92      		push r0
 652 033e 1124      		clr __zero_reg__
 653 0340 EF92      		push r14
 654 0342 FF92      		push r15
 655 0344 0F93      		push r16
 656 0346 1F93      		push r17
 657 0348 2F93      		push r18
 658 034a 3F93      		push r19
 659 034c 4F93      		push r20
 660 034e 5F93      		push r21
 661 0350 6F93      		push r22
 662 0352 7F93      		push r23
 663 0354 8F93      		push r24
 664 0356 9F93      		push r25
 665 0358 AF93      		push r26
 666 035a BF93      		push r27
 667 035c EF93      		push r30
 668 035e FF93      		push r31
 669               	/* prologue: Signal */
 670               	/* frame size = 0 */
 671               	.LM91:
 672 0360 5E9A      		sbi 43-32,6
 673               	.LM92:
 674 0362 80E0      		ldi r24,lo8(0)
 675 0364 0E94 0000 		call acquisition
 676               	.LM93:
 677 0368 81E0      		ldi r24,lo8(1)
 678 036a 0E94 0000 		call acquisition
 679               	.LM94:
 680 036e E090 0000 		lds r14,Acc+8
 681 0372 F090 0000 		lds r15,(Acc+8)+1
 682 0376 0091 0000 		lds r16,(Acc+8)+2
 683 037a 1091 0000 		lds r17,(Acc+8)+3
 684 037e 2091 0000 		lds r18,Sample+12
 685 0382 3091 0000 		lds r19,(Sample+12)+1
 686 0386 4091 0000 		lds r20,(Sample+12)+2
 687 038a 5091 0000 		lds r21,(Sample+12)+3
 688 038e 6091 0000 		lds r22,Sample+28
 689 0392 7091 0000 		lds r23,(Sample+28)+1
 690 0396 8091 0000 		lds r24,(Sample+28)+2
 691 039a 9091 0000 		lds r25,(Sample+28)+3
 692 039e F6E0      		ldi r31,6
 693 03a0 9595      	1:	asr r25
 694 03a2 8795      		ror r24
 695 03a4 7795      		ror r23
 696 03a6 6795      		ror r22
 697 03a8 FA95      		dec r31
 698 03aa 01F4      		brne 1b
 699 03ac E6E0      		ldi r30,6
 700 03ae 5595      	1:	asr r21
 701 03b0 4795      		ror r20
 702 03b2 3795      		ror r19
 703 03b4 2795      		ror r18
 704 03b6 EA95      		dec r30
 705 03b8 01F4      		brne 1b
 706 03ba 0E94 0000 		call __mulsi3
 707 03be E60E      		add r14,r22
 708 03c0 F71E      		adc r15,r23
 709 03c2 081F      		adc r16,r24
 710 03c4 191F      		adc r17,r25
 711 03c6 E092 0000 		sts Acc+8,r14
 712 03ca F092 0000 		sts (Acc+8)+1,r15
 713 03ce 0093 0000 		sts (Acc+8)+2,r16
 714 03d2 1093 0000 		sts (Acc+8)+3,r17
 715               	.LM95:
 716 03d6 8091 0000 		lds r24,tcnt
 717 03da 9091 0000 		lds r25,(tcnt)+1
 718 03de 8050      		subi r24,lo8(512)
 719 03e0 9240      		sbci r25,hi8(512)
 720 03e2 00F0      		brlo .L56
 721               	.LM96:
 722 03e4 1092 0000 		sts (tcnt)+1,__zero_reg__
 723 03e8 1092 0000 		sts tcnt,__zero_reg__
 724               	.LM97:
 725 03ec 1092 0000 		sts scnt,__zero_reg__
 726               	.LM98:
 727 03f0 8091 0000 		lds r24,Flags
 728 03f4 8160      		ori r24,lo8(1)
 729 03f6 8093 0000 		sts Flags,r24
 730               	.L56:
 731               	.LM99:
 732 03fa 8091 0000 		lds r24,cnt
 733 03fe 9091 0000 		lds r25,(cnt)+1
 734 0402 0196      		adiw r24,1
 735 0404 9093 0000 		sts (cnt)+1,r25
 736 0408 8093 0000 		sts cnt,r24
 737               	.LM100:
 738 040c 8091 0000 		lds r24,cnt
 739 0410 9091 0000 		lds r25,(cnt)+1
 740 0414 8050      		subi r24,lo8(2048)
 741 0416 9840      		sbci r25,hi8(2048)
 742 0418 00F0      		brlo .L57
 743               	.LM101:
 744 041a 8091 0000 		lds r24,Flags
 745 041e 8260      		ori r24,lo8(2)
 746 0420 8093 0000 		sts Flags,r24
 747               	.LM102:
 748 0424 1092 0000 		sts (cnt)+1,__zero_reg__
 749 0428 1092 0000 		sts cnt,__zero_reg__
 750               	.L57:
 751               	.LM103:
 752 042c 5E98      		cbi 43-32,6
 753               	/* epilogue start */
 754               	.LM104:
 755 042e FF91      		pop r31
 756 0430 EF91      		pop r30
 757 0432 BF91      		pop r27
 758 0434 AF91      		pop r26
 759 0436 9F91      		pop r25
 760 0438 8F91      		pop r24
 761 043a 7F91      		pop r23
 762 043c 6F91      		pop r22
 763 043e 5F91      		pop r21
 764 0440 4F91      		pop r20
 765 0442 3F91      		pop r19
 766 0444 2F91      		pop r18
 767 0446 1F91      		pop r17
 768 0448 0F91      		pop r16
 769 044a FF90      		pop r15
 770 044c EF90      		pop r14
 771 044e 0F90      		pop r0
 772 0450 0FBE      		out __SREG__,r0
 773 0452 0F90      		pop r0
 774 0454 1F90      		pop __zero_reg__
 775 0456 1895      		reti
 776               	.LFE16:
 778               		.data
 779               	.LC0:
 780 0000 0A69 6E69 		.string	"\ninitialized uart !\n"
 780      7469 616C 
 780      697A 6564 
 780      2075 6172 
 780      7420 210A 
 781               	.LC1:
 782 0015 696E 6974 		.string	"initialized spi !\n"
 782      6961 6C69 
 782      7A65 6420 
 782      7370 6920 
 782      210A 00
 783               	.LC2:
 784 0028 2530 342E 		.string	"%04.2lf,%04.2lf\r\n"
 784      326C 662C 
 784      2530 342E 
 784      326C 660D 
 784      0A00 
 785               		.text
 786               	.global	main
 788               	main:
 789               	.LFB14:
 790               	.LM105:
 791 0458 2F92      		push r2
 792 045a 3F92      		push r3
 793 045c 4F92      		push r4
 794 045e 5F92      		push r5
 795 0460 6F92      		push r6
 796 0462 7F92      		push r7
 797 0464 8F92      		push r8
 798 0466 9F92      		push r9
 799 0468 AF92      		push r10
 800 046a BF92      		push r11
 801 046c CF92      		push r12
 802 046e DF92      		push r13
 803 0470 EF92      		push r14
 804 0472 FF92      		push r15
 805 0474 0F93      		push r16
 806 0476 1F93      		push r17
 807 0478 DF93      		push r29
 808 047a CF93      		push r28
 809 047c CDB7      		in r28,__SP_L__
 810 047e DEB7      		in r29,__SP_H__
 811 0480 AE97      		sbiw r28,46
 812 0482 0FB6      		in __tmp_reg__,__SREG__
 813 0484 F894      		cli
 814 0486 DEBF      		out __SP_H__,r29
 815 0488 0FBE      		out __SREG__,__tmp_reg__
 816 048a CDBF      		out __SP_L__,r28
 817               	/* prologue: function */
 818               	/* frame size = 46 */
 819               	.LM106:
 820 048c 8AB1      		in r24,42-32
 821 048e 8066      		ori r24,lo8(96)
 822 0490 8AB9      		out 42-32,r24
 823               	.LM107:
 824 0492 209A      		sbi 36-32,0
 825               	.LM108:
 826 0494 289A      		sbi 37-32,0
 827               	.LM109:
 828 0496 0E94 0000 		call uart_init
 829               	.LM110:
 830 049a 80E0      		ldi r24,lo8(.LC0)
 831 049c 90E0      		ldi r25,hi8(.LC0)
 832 049e 0E94 0000 		call uart_transmitMult
 833               	.LBB43:
 834               	.LBB44:
 835               	.LM111:
 836 04a2 8CE2      		ldi r24,lo8(44)
 837 04a4 84B9      		out 36-32,r24
 838               	.LM112:
 839 04a6 81E5      		ldi r24,lo8(81)
 840 04a8 8CBD      		out 76-32,r24
 841               	.LM113:
 842 04aa 2A9A      		sbi 37-32,2
 843               	.LBE44:
 844               	.LBE43:
 845               	.LM114:
 846 04ac 80E0      		ldi r24,lo8(.LC1)
 847 04ae 90E0      		ldi r25,hi8(.LC1)
 848 04b0 0E94 0000 		call uart_transmitMult
 849               	.LM115:
 850 04b4 84B5      		in r24,68-32
 851 04b6 8260      		ori r24,lo8(2)
 852 04b8 84BD      		out 68-32,r24
 853               	.LM116:
 854 04ba 8091 6E00 		lds r24,110
 855 04be 8260      		ori r24,lo8(2)
 856 04c0 8093 6E00 		sts 110,r24
 857               	.LM117:
 858 04c4 86E0      		ldi r24,lo8(6)
 859 04c6 87BD      		out 71-32,r24
 860               	.LM118:
 861               	/* #APP */
 862               	 ;  167 "main.c" 1
 863 04c8 7894      		sei
 864               	 ;  0 "" 2
 865               	.LM119:
 866               	/* #NOAPP */
 867 04ca 85B5      		in r24,69-32
 868 04cc 8560      		ori r24,lo8(5)
 869 04ce 85BD      		out 69-32,r24
 870               	.LBB45:
 871               	.LBB46:
 872               	.LM120:
 873 04d0 CE01      		movw r24,r28
 874 04d2 0196      		adiw r24,1
 875 04d4 9EA7      		std Y+46,r25
 876 04d6 8DA7      		std Y+45,r24
 877               	.LVL19:
 878               	.L69:
 879               	.LBE46:
 880               	.LBE45:
 881               	.LM121:
 882 04d8 2090 0000 		lds r2,Res+4
 883 04dc 3090 0000 		lds r3,(Res+4)+1
 884 04e0 4090 0000 		lds r4,(Res+4)+2
 885 04e4 5090 0000 		lds r5,(Res+4)+3
 886 04e8 9091 0000 		lds r25,Res
 887 04ec 99A7      		std Y+41,r25
 888 04ee A091 0000 		lds r26,Res+1
 889 04f2 AAA7      		std Y+42,r26
 890 04f4 B091 0000 		lds r27,Res+2
 891 04f8 BBA7      		std Y+43,r27
 892 04fa E091 0000 		lds r30,Res+3
 893 04fe ECA7      		std Y+44,r30
 894 0500 F091 0000 		lds r31,Res+8
 895 0504 E091 0000 		lds r30,Res+9
 896 0508 7091 0000 		lds r23,Res+10
 897 050c 6091 0000 		lds r22,Res+11
 898               	.L67:
 899               	.LM122:
 900 0510 8091 0000 		lds r24,Flags
 901               	.LM123:
 902 0514 8091 0000 		lds r24,Flags
 903 0518 80FF      		sbrs r24,0
 904 051a 00C0      		rjmp .L60
 905               	.LBB48:
 906               	.LM124:
 907 051c 8091 0000 		lds r24,Flags
 908 0520 8E7F      		andi r24,lo8(-2)
 909 0522 8093 0000 		sts Flags,r24
 910               	.LM125:
 911 0526 A0E0      		ldi r26,lo8(Sum)
 912 0528 B0E0      		ldi r27,hi8(Sum)
 913 052a E0E0      		ldi r30,lo8(Acc)
 914 052c F0E0      		ldi r31,hi8(Acc)
 915 052e 8CE0      		ldi r24,lo8(12)
 916               	.L61:
 917 0530 0190      		ld r0,Z+
 918 0532 0D92      		st X+,r0
 919 0534 8150      		subi r24,lo8(-(-1))
 920 0536 01F4      		brne .L61
 921               	.LM126:
 922 0538 1092 0000 		sts Acc,__zero_reg__
 923 053c 1092 0000 		sts (Acc)+1,__zero_reg__
 924 0540 1092 0000 		sts (Acc)+2,__zero_reg__
 925 0544 1092 0000 		sts (Acc)+3,__zero_reg__
 926               	.LM127:
 927 0548 1092 0000 		sts Acc+4,__zero_reg__
 928 054c 1092 0000 		sts (Acc+4)+1,__zero_reg__
 929 0550 1092 0000 		sts (Acc+4)+2,__zero_reg__
 930 0554 1092 0000 		sts (Acc+4)+3,__zero_reg__
 931               	.LM128:
 932 0558 1092 0000 		sts Acc+8,__zero_reg__
 933 055c 1092 0000 		sts (Acc+8)+1,__zero_reg__
 934 0560 1092 0000 		sts (Acc+8)+2,__zero_reg__
 935 0564 1092 0000 		sts (Acc+8)+3,__zero_reg__
 936               	.LM129:
 937 0568 6091 0000 		lds r22,Sum
 938 056c 7091 0000 		lds r23,(Sum)+1
 939 0570 8091 0000 		lds r24,(Sum)+2
 940 0574 9091 0000 		lds r25,(Sum)+3
 941               	.LM130:
 942 0578 0E94 0000 		call __floatsisf
 943 057c 29ED      		ldi r18,lo8(0x3c1d89d9)
 944 057e 39E8      		ldi r19,hi8(0x3c1d89d9)
 945 0580 4DE1      		ldi r20,hlo8(0x3c1d89d9)
 946 0582 5CE3      		ldi r21,hhi8(0x3c1d89d9)
 947 0584 0E94 0000 		call __mulsf3
 948 0588 0E94 0000 		call __fixunssfsi
 949 058c 80E0      		ldi r24,lo8(0)
 950 058e 90E0      		ldi r25,hi8(0)
 951 0590 0E94 0000 		call __floatunsisf
 952 0594 0E94 0000 		call sqrt
 953 0598 7B01      		movw r14,r22
 954 059a 8C01      		movw r16,r24
 955 059c 6091 0000 		lds r22,CalCoeffs+1
 956 05a0 70E0      		ldi r23,lo8(0)
 957 05a2 8827      		clr r24
 958 05a4 77FD      		sbrc r23,7
 959 05a6 8095      		com r24
 960 05a8 982F      		mov r25,r24
 961 05aa 0E94 0000 		call __floatsisf
 962 05ae 9B01      		movw r18,r22
 963 05b0 AC01      		movw r20,r24
 964 05b2 C801      		movw r24,r16
 965 05b4 B701      		movw r22,r14
 966 05b6 0E94 0000 		call __mulsf3
 967 05ba 69A7      		std Y+41,r22
 968 05bc 7AA7      		std Y+42,r23
 969 05be 8BA7      		std Y+43,r24
 970 05c0 9CA7      		std Y+44,r25
 971               	.LM131:
 972 05c2 6091 0000 		lds r22,Sum+4
 973 05c6 7091 0000 		lds r23,(Sum+4)+1
 974 05ca 8091 0000 		lds r24,(Sum+4)+2
 975 05ce 9091 0000 		lds r25,(Sum+4)+3
 976               	.LM132:
 977 05d2 0E94 0000 		call __floatsisf
 978 05d6 29ED      		ldi r18,lo8(0x3c1d89d9)
 979 05d8 39E8      		ldi r19,hi8(0x3c1d89d9)
 980 05da 4DE1      		ldi r20,hlo8(0x3c1d89d9)
 981 05dc 5CE3      		ldi r21,hhi8(0x3c1d89d9)
 982 05de 0E94 0000 		call __mulsf3
 983 05e2 0E94 0000 		call __fixunssfsi
 984 05e6 80E0      		ldi r24,lo8(0)
 985 05e8 90E0      		ldi r25,hi8(0)
 986 05ea 0E94 0000 		call __floatunsisf
 987 05ee 0E94 0000 		call sqrt
 988 05f2 7B01      		movw r14,r22
 989 05f4 8C01      		movw r16,r24
 990 05f6 6091 0000 		lds r22,CalCoeffs+4
 991 05fa 70E0      		ldi r23,lo8(0)
 992 05fc 8827      		clr r24
 993 05fe 77FD      		sbrc r23,7
 994 0600 8095      		com r24
 995 0602 982F      		mov r25,r24
 996 0604 0E94 0000 		call __floatsisf
 997 0608 9B01      		movw r18,r22
 998 060a AC01      		movw r20,r24
 999 060c C801      		movw r24,r16
 1000 060e B701      		movw r22,r14
 1001 0610 0E94 0000 		call __mulsf3
 1002 0614 1B01      		movw r2,r22
 1003 0616 2C01      		movw r4,r24
 1004               	.LM133:
 1005 0618 2FE6      		ldi r18,lo8(0x3a83126f)
 1006 061a 32E1      		ldi r19,hi8(0x3a83126f)
 1007 061c 43E8      		ldi r20,hlo8(0x3a83126f)
 1008 061e 5AE3      		ldi r21,hhi8(0x3a83126f)
 1009 0620 0E94 0000 		call __ltsf2
 1010 0624 8823      		tst r24
 1011 0626 04F4      		brge .L76
 1012 0628 F0E0      		ldi r31,lo8(0)
 1013 062a E0E0      		ldi r30,lo8(0)
 1014 062c 70E0      		ldi r23,lo8(0)
 1015 062e 60E0      		ldi r22,lo8(0)
 1016 0630 00C0      		rjmp .L60
 1017               	.L76:
 1018               	.LM134:
 1019 0632 6091 0000 		lds r22,Sum+8
 1020 0636 7091 0000 		lds r23,(Sum+8)+1
 1021 063a 8091 0000 		lds r24,(Sum+8)+2
 1022 063e 9091 0000 		lds r25,(Sum+8)+3
 1023 0642 E090 0000 		lds r14,CalCoeffs+1
 1024 0646 A090 0000 		lds r10,CalCoeffs+4
 1025 064a 0E94 0000 		call __floatsisf
 1026 064e 29ED      		ldi r18,lo8(0x3c1d89d9)
 1027 0650 39E8      		ldi r19,hi8(0x3c1d89d9)
 1028 0652 4DE1      		ldi r20,hlo8(0x3c1d89d9)
 1029 0654 5CE3      		ldi r21,hhi8(0x3c1d89d9)
 1030 0656 0E94 0000 		call __mulsf3
 1031 065a 3B01      		movw r6,r22
 1032 065c 4C01      		movw r8,r24
 1033 065e FF24      		clr r15
 1034 0660 0027      		clr r16
 1035 0662 F7FC      		sbrc r15,7
 1036 0664 0095      		com r16
 1037 0666 102F      		mov r17,r16
 1038 0668 C801      		movw r24,r16
 1039 066a B701      		movw r22,r14
 1040 066c 0E94 0000 		call __floatsisf
 1041 0670 9B01      		movw r18,r22
 1042 0672 AC01      		movw r20,r24
 1043 0674 C401      		movw r24,r8
 1044 0676 B301      		movw r22,r6
 1045 0678 0E94 0000 		call __mulsf3
 1046 067c 7B01      		movw r14,r22
 1047 067e 8C01      		movw r16,r24
 1048 0680 BB24      		clr r11
 1049 0682 CC24      		clr r12
 1050 0684 B7FC      		sbrc r11,7
 1051 0686 C094      		com r12
 1052 0688 DC2C      		mov r13,r12
 1053 068a C601      		movw r24,r12
 1054 068c B501      		movw r22,r10
 1055 068e 0E94 0000 		call __floatsisf
 1056 0692 9B01      		movw r18,r22
 1057 0694 AC01      		movw r20,r24
 1058 0696 C801      		movw r24,r16
 1059 0698 B701      		movw r22,r14
 1060 069a 0E94 0000 		call __mulsf3
 1061 069e F62F      		mov r31,r22
 1062 06a0 E72F      		mov r30,r23
 1063 06a2 782F      		mov r23,r24
 1064 06a4 692F      		mov r22,r25
 1065               	.L60:
 1066               	.LBE48:
 1067               	.LM135:
 1068 06a6 8091 0000 		lds r24,Flags
 1069 06aa 82FF      		sbrs r24,2
 1070 06ac 00C0      		rjmp .L64
 1071               	.LM136:
 1072 06ae 8091 0000 		lds r24,Flags
 1073 06b2 8B7F      		andi r24,lo8(-5)
 1074 06b4 8093 0000 		sts Flags,r24
 1075               	.LM137:
 1076 06b8 9091 0000 		lds r25,data
 1077               	.L65:
 1078               	.LBB49:
 1079               	.LBB50:
 1080               	.LM138:
 1081 06bc 8091 C000 		lds r24,192
 1082 06c0 85FF      		sbrs r24,5
 1083 06c2 00C0      		rjmp .L65
 1084               	.LBE50:
 1085               	.LBE49:
 1086               	.LM139:
 1087 06c4 9F5F      		subi r25,lo8(-(1))
 1088               	.LBB52:
 1089               	.LBB51:
 1090               	.LM140:
 1091 06c6 9093 C600 		sts 198,r25
 1092               	.LBE51:
 1093               	.LBE52:
 1094               	.LM141:
 1095 06ca 8091 0000 		lds r24,data
 1096 06ce 8136      		cpi r24,lo8(97)
 1097 06d0 01F4      		brne .L66
 1098 06d2 8BB1      		in r24,43-32
 1099 06d4 90E4      		ldi r25,lo8(64)
 1100 06d6 8927      		eor r24,r25
 1101 06d8 8BB9      		out 43-32,r24
 1102               	.L66:
 1103               	.LM142:
 1104 06da 1092 0000 		sts data,__zero_reg__
 1105               	.L64:
 1106               	.LM143:
 1107 06de 8091 0000 		lds r24,Flags
 1108 06e2 81FF      		sbrs r24,1
 1109 06e4 00C0      		rjmp .L67
 1110 06e6 2092 0000 		sts Res+4,r2
 1111 06ea 3092 0000 		sts (Res+4)+1,r3
 1112 06ee 4092 0000 		sts (Res+4)+2,r4
 1113 06f2 5092 0000 		sts (Res+4)+3,r5
 1114 06f6 29A5      		ldd r18,Y+41
 1115 06f8 3AA5      		ldd r19,Y+42
 1116 06fa 4BA5      		ldd r20,Y+43
 1117 06fc 5CA5      		ldd r21,Y+44
 1118 06fe C901      		movw r24,r18
 1119 0700 DA01      		movw r26,r20
 1120 0702 8093 0000 		sts Res,r24
 1121 0706 9093 0000 		sts (Res)+1,r25
 1122 070a A093 0000 		sts (Res)+2,r26
 1123 070e B093 0000 		sts (Res)+3,r27
 1124 0712 2F2F      		mov r18,r31
 1125 0714 3E2F      		mov r19,r30
 1126 0716 472F      		mov r20,r23
 1127 0718 562F      		mov r21,r22
 1128 071a C901      		movw r24,r18
 1129 071c DA01      		movw r26,r20
 1130 071e 8093 0000 		sts Res+8,r24
 1131 0722 9093 0000 		sts (Res+8)+1,r25
 1132 0726 A093 0000 		sts (Res+8)+2,r26
 1133 072a B093 0000 		sts (Res+8)+3,r27
 1134               	.LM144:
 1135 072e 8091 0000 		lds r24,Flags
 1136 0732 8D7F      		andi r24,lo8(-3)
 1137 0734 8093 0000 		sts Flags,r24
 1138               	.LM145:
 1139 0738 5D9A      		sbi 43-32,5
 1140 073a 00E0      		ldi r16,lo8(0)
 1141 073c 10E0      		ldi r17,hi8(0)
 1142               	.L68:
 1143               	.LBB53:
 1144               	.LBB47:
 1145               	.LM146:
 1146 073e ADA5      		ldd r26,Y+45
 1147 0740 BEA5      		ldd r27,Y+46
 1148 0742 E8E2      		ldi r30,lo8(40)
 1149 0744 1D92      		st X+,__zero_reg__
 1150 0746 EA95      	        dec r30
 1151 0748 01F4      		brne .-6
 1152               	.LM147:
 1153 074a 8DB7      		in r24,__SP_L__
 1154 074c 9EB7      		in r25,__SP_H__
 1155 074e 0C97      		sbiw r24,12
 1156 0750 0FB6      		in __tmp_reg__,__SREG__
 1157 0752 F894      		cli
 1158 0754 9EBF      		out __SP_H__,r25
 1159 0756 0FBE      		out __SREG__,__tmp_reg__
 1160 0758 8DBF      		out __SP_L__,r24
 1161 075a EDB7      		in r30,__SP_L__
 1162 075c FEB7      		in r31,__SP_H__
 1163 075e 3196      		adiw r30,1
 1164 0760 81E0      		ldi r24,lo8(1)
 1165 0762 90E0      		ldi r25,hi8(1)
 1166 0764 8C0F      		add r24,r28
 1167 0766 9D1F      		adc r25,r29
 1168 0768 ADB7      		in r26,__SP_L__
 1169 076a BEB7      		in r27,__SP_H__
 1170 076c 1296      		adiw r26,1+1
 1171 076e 9C93      		st X,r25
 1172 0770 8E93      		st -X,r24
 1173 0772 1197      		sbiw r26,1
 1174 0774 A0E0      		ldi r26,lo8(.LC2)
 1175 0776 B0E0      		ldi r27,hi8(.LC2)
 1176 0778 B383      		std Z+3,r27
 1177 077a A283      		std Z+2,r26
 1178 077c 84EA      		ldi r24,lo8(0x3f9d70a4)
 1179 077e 90E7      		ldi r25,hi8(0x3f9d70a4)
 1180 0780 ADE9      		ldi r26,hlo8(0x3f9d70a4)
 1181 0782 BFE3      		ldi r27,hhi8(0x3f9d70a4)
 1182 0784 8483      		std Z+4,r24
 1183 0786 9583      		std Z+5,r25
 1184 0788 A683      		std Z+6,r26
 1185 078a B783      		std Z+7,r27
 1186 078c 85E8      		ldi r24,lo8(0x4091eb85)
 1187 078e 9BEE      		ldi r25,hi8(0x4091eb85)
 1188 0790 A1E9      		ldi r26,hlo8(0x4091eb85)
 1189 0792 B0E4      		ldi r27,hhi8(0x4091eb85)
 1190 0794 8087      		std Z+8,r24
 1191 0796 9187      		std Z+9,r25
 1192 0798 A287      		std Z+10,r26
 1193 079a B387      		std Z+11,r27
 1194 079c 0E94 0000 		call sprintf
 1195               	.LM148:
 1196 07a0 ADB7      		in r26,__SP_L__
 1197 07a2 BEB7      		in r27,__SP_H__
 1198 07a4 1C96      		adiw r26,12
 1199 07a6 0FB6      		in __tmp_reg__,__SREG__
 1200 07a8 F894      		cli
 1201 07aa BEBF      		out __SP_H__,r27
 1202 07ac 0FBE      		out __SREG__,__tmp_reg__
 1203 07ae ADBF      		out __SP_L__,r26
 1204 07b0 CE01      		movw r24,r28
 1205 07b2 0196      		adiw r24,1
 1206 07b4 0E94 0000 		call uart_transmitMult
 1207               	.LBE47:
 1208               	.LM149:
 1209 07b8 0F5F      		subi r16,lo8(-(1))
 1210 07ba 1F4F      		sbci r17,hi8(-(1))
 1211 07bc 0F3F      		cpi r16,255
 1212 07be 1105      		cpc r17,__zero_reg__
 1213 07c0 01F0      		breq .+2
 1214 07c2 00C0      		rjmp .L68
 1215               	.LBE53:
 1216               	.LM150:
 1217 07c4 5D98      		cbi 43-32,5
 1218 07c6 00C0      		rjmp .L69
 1219               	.LFE14:
 1221               	.global	scnt
 1222               	.global	scnt
 1223               		.section .bss
 1226               	scnt:
 1227 0000 00        		.skip 1,0
 1228               	.global	cnt
 1229               	.global	cnt
 1232               	cnt:
 1233 0001 0000      		.skip 2,0
 1234               	.global	Flags
 1235               	.global	Flags
 1238               	Flags:
 1239 0003 00        		.skip 1,0
 1240               	.global	tcnt
 1241               	.global	tcnt
 1244               	tcnt:
 1245 0004 0000      		.skip 2,0
 1246               	.global	testArr
 1247               	.global	testArr
 1250               	testArr:
 1251 0006 0000 0000 		.skip 2048,0
 1251      0000 0000 
 1251      0000 0000 
 1251      0000 0000 
 1251      0000 0000 
 1252               	.global	CalCoeffs
 1253               		.data
 1256               	CalCoeffs:
 1257 003a 00        		.byte	0
 1258 003b 01        		.byte	1
 1259 003c 00        		.byte	0
 1260 003d 00        		.byte	0
 1261 003e 01        		.byte	1
 1262 003f 00        		.byte	0
 1263               	.global	Sample
 1264               	.global	Sample
 1265               		.section .bss
 1268               	Sample:
 1269 0806 0000 0000 		.skip 32,0
 1269      0000 0000 
 1269      0000 0000 
 1269      0000 0000 
 1269      0000 0000 
 1270               		.comm data,1,1
 1271               		.comm Acc,12,1
 1272               		.comm Sum,12,1
 1273               		.comm Res,12,1
 1386               	.Letext0:
DEFINED SYMBOLS
                            *ABS*:00000000 main.c
C:\Users\User\AppData\Local\Temp/ccwtb6x2.s:2      *ABS*:0000003f __SREG__
C:\Users\User\AppData\Local\Temp/ccwtb6x2.s:3      *ABS*:0000003e __SP_H__
C:\Users\User\AppData\Local\Temp/ccwtb6x2.s:4      *ABS*:0000003d __SP_L__
C:\Users\User\AppData\Local\Temp/ccwtb6x2.s:5      *ABS*:00000034 __CCP__
C:\Users\User\AppData\Local\Temp/ccwtb6x2.s:6      *ABS*:00000000 __tmp_reg__
C:\Users\User\AppData\Local\Temp/ccwtb6x2.s:7      *ABS*:00000001 __zero_reg__
C:\Users\User\AppData\Local\Temp/ccwtb6x2.s:18     .text:00000000 uart_init
C:\Users\User\AppData\Local\Temp/ccwtb6x2.s:47     .text:00000020 uart_transmit
C:\Users\User\AppData\Local\Temp/ccwtb6x2.s:69     .text:00000030 uart_transmitMult
C:\Users\User\AppData\Local\Temp/ccwtb6x2.s:108    .text:0000004a uart_recieve
C:\Users\User\AppData\Local\Temp/ccwtb6x2.s:124    .text:00000054 spi_masterInit
C:\Users\User\AppData\Local\Temp/ccwtb6x2.s:144    .text:00000060 spi_rxtx
C:\Users\User\AppData\Local\Temp/ccwtb6x2.s:167    .text:0000006c adc_v
C:\Users\User\AppData\Local\Temp/ccwtb6x2.s:234    .text:000000a6 adc_i
C:\Users\User\AppData\Local\Temp/ccwtb6x2.s:324    .text:000000f6 acquisition
C:\Users\User\AppData\Local\Temp/ccwtb6x2.s:1268   .bss:00000806 Sample
C:\Users\User\AppData\Local\Temp/ccwtb6x2.s:1238   .bss:00000003 Flags
                            *COM*:0000000c Acc
C:\Users\User\AppData\Local\Temp/ccwtb6x2.s:1244   .bss:00000004 tcnt
C:\Users\User\AppData\Local\Temp/ccwtb6x2.s:1250   .bss:00000006 testArr
C:\Users\User\AppData\Local\Temp/ccwtb6x2.s:608    .text:00000308 __vector_18
                            *COM*:00000001 data
C:\Users\User\AppData\Local\Temp/ccwtb6x2.s:645    .text:00000336 __vector_14
C:\Users\User\AppData\Local\Temp/ccwtb6x2.s:1226   .bss:00000000 scnt
C:\Users\User\AppData\Local\Temp/ccwtb6x2.s:1232   .bss:00000001 cnt
C:\Users\User\AppData\Local\Temp/ccwtb6x2.s:788    .text:00000458 main
                            *COM*:0000000c Res
                            *COM*:0000000c Sum
C:\Users\User\AppData\Local\Temp/ccwtb6x2.s:1256   .data:0000003a CalCoeffs

UNDEFINED SYMBOLS
__mulsi3
__floatsisf
__mulsf3
__fixunssfsi
__floatunsisf
sqrt
__ltsf2
sprintf
__do_copy_data
__do_clear_bss
