   1               		.file	"Led.c"
   2               	__SP_H__ = 0x3e
   3               	__SP_L__ = 0x3d
   4               	__SREG__ = 0x3f
   5               	__tmp_reg__ = 0
   6               	__zero_reg__ = 1
   7               		.text
   8               	.Ltext0:
   9               		.cfi_sections	.debug_frame
  10               	.global	tcolor
  12               	tcolor:
  13               	.LFB6:
  14               		.file 1 "Led.c"
   1:Led.c         **** #include "Led.h" 
   2:Led.c         **** 
   3:Led.c         **** static const uint8_t ledMap[11]={7,8,10,14,0,4,17,2,12,6,16};
   4:Led.c         **** 
   5:Led.c         **** 
   6:Led.c         **** Tcolor tcolor(uint8_t r,uint8_t g,uint8_t b){
  15               		.loc 1 6 0
  16               		.cfi_startproc
  17               	.LVL0:
  18               	/* prologue: function */
  19               	/* frame size = 0 */
  20               	/* stack size = 0 */
  21               	.L__stack_usage = 0
  22 0000 762F      		mov r23,r22
  23               	.LVL1:
   7:Led.c         ****     Tcolor c={r,g,b};
   8:Led.c         ****     return c;
   9:Led.c         **** }
  24               		.loc 1 9 0
  25 0002 682F      		mov r22,r24
  26               	.LVL2:
  27 0004 842F      		mov r24,r20
  28               	.LVL3:
  29 0006 0895      		ret
  30               		.cfi_endproc
  31               	.LFE6:
  33               	.global	tcolorV
  35               	tcolorV:
  36               	.LFB7:
  10:Led.c         **** 
  11:Led.c         **** Tcolor tcolorV(uint32_t v){
  37               		.loc 1 11 0
  38               		.cfi_startproc
  39               	.LVL4:
  40 0008 0F93      		push r16
  41               	.LCFI0:
  42               		.cfi_def_cfa_offset 3
  43               		.cfi_offset 16, -2
  44 000a 1F93      		push r17
  45               	.LCFI1:
  46               		.cfi_def_cfa_offset 4
  47               		.cfi_offset 17, -3
  48               	/* prologue: function */
  49               	/* frame size = 0 */
  50               	/* stack size = 2 */
  51               	.L__stack_usage = 2
  52 000c DC01      		movw r26,r24
  53 000e CB01      		movw r24,r22
  54               	.LVL5:
  12:Led.c         ****     Tcolor c={(v>>16)&0xFF,(v>>8)&0xFF,v&0xFF};
  13:Led.c         ****     return c;
  55               		.loc 1 13 0
  56 0010 AD01      		movw r20,r26
  57 0012 6627      		clr r22
  58 0014 7727      		clr r23
  59 0016 092F      		mov r16,r25
  60 0018 1A2F      		mov r17,r26
  61 001a 2B2F      		mov r18,r27
  62 001c 3327      		clr r19
  63               	.LVL6:
  14:Led.c         **** }
  64               		.loc 1 14 0
  65 001e 642F      		mov r22,r20
  66               	.LVL7:
  67 0020 702F      		mov r23,r16
  68               	/* epilogue start */
  69 0022 1F91      		pop r17
  70 0024 0F91      		pop r16
  71 0026 0895      		ret
  72               		.cfi_endproc
  73               	.LFE7:
  75               	.global	ledInit
  77               	ledInit:
  78               	.LFB8:
  15:Led.c         **** 
  16:Led.c         **** void ledInit(Led* leds){
  79               		.loc 1 16 0
  80               		.cfi_startproc
  81               	.LVL8:
  82               	/* prologue: function */
  83               	/* frame size = 0 */
  84               	/* stack size = 0 */
  85               	.L__stack_usage = 0
  17:Led.c         ****     DDRA |= CLK|DATA|STROBE|LED;
  86               		.loc 1 17 0
  87 0028 2AB3      		in r18,0x1a
  88 002a 2F60      		ori r18,lo8(15)
  89 002c 2ABB      		out 0x1a,r18
  18:Led.c         ****     PORTA &= ~(CLK|DATA|STROBE|LED);
  90               		.loc 1 18 0
  91 002e 2BB3      		in r18,0x1b
  92 0030 207F      		andi r18,lo8(-16)
  93 0032 2BBB      		out 0x1b,r18
  94               	.LVL9:
  95 0034 FC01      		movw r30,r24
  96               	.LBB38:
  19:Led.c         ****     
  20:Led.c         ****     for(uint8_t i=0;i<NBLEDS;i++){
  97               		.loc 1 20 0
  98 0036 80E0      		ldi r24,0
  99               	.LVL10:
 100               	.L6:
  21:Led.c         ****         leds[i].row=i%2;//leds[0]=0, leds[1]=1
 101               		.loc 1 21 0
 102 0038 982F      		mov r25,r24
 103 003a 9170      		andi r25,lo8(1)
 104 003c 9183      		std Z+1,r25
  22:Led.c         ****         if(i<10){
 105               		.loc 1 22 0
 106 003e 8A30      		cpi r24,lo8(10)
 107 0040 00F4      		brsh .L4
  23:Led.c         ****             leds[i].col=i;//0-9
 108               		.loc 1 23 0
 109 0042 8083      		st Z,r24
 110 0044 00C0      		rjmp .L5
 111               	.L4:
  24:Led.c         ****         }else{
  25:Led.c         ****             leds[i].col=i-9;//1-9
 112               		.loc 1 25 0
 113 0046 97EF      		ldi r25,lo8(-9)
 114 0048 980F      		add r25,r24
 115 004a 9083      		st Z,r25
 116               	.L5:
  26:Led.c         ****         }
  27:Led.c         ****         leds[i].c.r=0;
 117               		.loc 1 27 0 discriminator 2
 118 004c 1282      		std Z+2,__zero_reg__
  28:Led.c         ****         leds[i].c.g=0;
 119               		.loc 1 28 0 discriminator 2
 120 004e 1382      		std Z+3,__zero_reg__
  29:Led.c         ****         leds[i].c.b=0;
 121               		.loc 1 29 0 discriminator 2
 122 0050 1482      		std Z+4,__zero_reg__
  20:Led.c         ****         leds[i].row=i%2;//leds[0]=0, leds[1]=1
 123               		.loc 1 20 0 discriminator 2
 124 0052 8F5F      		subi r24,lo8(-(1))
 125               	.LVL11:
 126 0054 3596      		adiw r30,5
 127 0056 8331      		cpi r24,lo8(19)
 128 0058 01F4      		brne .L6
 129               	/* epilogue start */
 130               	.LBE38:
  30:Led.c         ****     }
  31:Led.c         **** }
 131               		.loc 1 31 0
 132 005a 0895      		ret
 133               		.cfi_endproc
 134               	.LFE8:
 136               	.global	getColorByLed
 138               	getColorByLed:
 139               	.LFB9:
  32:Led.c         **** uint32_t getColorByLed(Led l){
 140               		.loc 1 32 0
 141               		.cfi_startproc
 142 005c CF93      		push r28
 143               	.LCFI2:
 144               		.cfi_def_cfa_offset 3
 145               		.cfi_offset 28, -2
 146 005e DF93      		push r29
 147               	.LCFI3:
 148               		.cfi_def_cfa_offset 4
 149               		.cfi_offset 29, -3
 150 0060 00D0      		rcall .
 151 0062 00D0      		rcall .
 152 0064 1F92      		push __zero_reg__
 153               	.LCFI4:
 154               		.cfi_def_cfa_offset 9
 155 0066 CDB7      		in r28,__SP_L__
 156 0068 DEB7      		in r29,__SP_H__
 157               	.LCFI5:
 158               		.cfi_def_cfa_register 28
 159               	/* prologue: function */
 160               	/* frame size = 5 */
 161               	/* stack size = 7 */
 162               	.L__stack_usage = 7
 163               	.LVL12:
 164 006a 272F      		mov r18,r23
 165               	.LVL13:
 166 006c 382F      		mov r19,r24
 167               	.LVL14:
  33:Led.c         ****     uint32_t d=0;
  34:Led.c         ****     if(l.row){
 168               		.loc 1 34 0
 169 006e 5523      		tst r21
 170 0070 01F0      		breq .L10
  35:Led.c         ****         if(l.c.r)d|=R2;
 171               		.loc 1 35 0
 172 0072 6623      		tst r22
 173 0074 01F0      		breq .L16
 174 0076 60E0      		ldi r22,0
 175 0078 70E4      		ldi r23,lo8(64)
 176 007a 80E0      		ldi r24,0
 177 007c 90E0      		ldi r25,0
 178               	.LVL15:
 179 007e 00C0      		rjmp .L11
 180               	.LVL16:
 181               	.L16:
  33:Led.c         ****     uint32_t d=0;
 182               		.loc 1 33 0
 183 0080 60E0      		ldi r22,0
 184 0082 70E0      		ldi r23,0
 185 0084 CB01      		movw r24,r22
 186               	.LVL17:
 187               	.L11:
  36:Led.c         ****         if(l.c.g)d|=G2;
 188               		.loc 1 36 0
 189 0086 2111      		cpse r18,__zero_reg__
 190               		.loc 1 36 0 is_stmt 0 discriminator 1
 191 0088 8460      		ori r24,4
 192               	.LVL18:
 193               	.L12:
  37:Led.c         ****         if(l.c.b)d|=B2;
 194               		.loc 1 37 0 is_stmt 1
 195 008a 3323      		tst r19
 196 008c 01F0      		breq .L13
 197               		.loc 1 37 0 is_stmt 0 discriminator 1
 198 008e 8160      		ori r24,1
 199               	.LVL19:
 200 0090 00C0      		rjmp .L13
 201               	.LVL20:
 202               	.L10:
  38:Led.c         ****     }else{
  39:Led.c         ****         if(l.c.r)d|=R1;
 203               		.loc 1 39 0 is_stmt 1
 204 0092 6623      		tst r22
 205 0094 01F0      		breq .L17
 206 0096 60E0      		ldi r22,0
 207 0098 70E8      		ldi r23,lo8(-128)
 208 009a 80E0      		ldi r24,0
 209 009c 90E0      		ldi r25,0
 210               	.LVL21:
 211 009e 00C0      		rjmp .L14
 212               	.LVL22:
 213               	.L17:
  33:Led.c         ****     if(l.row){
 214               		.loc 1 33 0
 215 00a0 60E0      		ldi r22,0
 216 00a2 70E0      		ldi r23,0
 217 00a4 CB01      		movw r24,r22
 218               	.LVL23:
 219               	.L14:
  40:Led.c         ****         if(l.c.g)d|=G1;
 220               		.loc 1 40 0
 221 00a6 2111      		cpse r18,__zero_reg__
 222               		.loc 1 40 0 is_stmt 0 discriminator 1
 223 00a8 8860      		ori r24,8
 224               	.LVL24:
 225               	.L15:
  41:Led.c         ****         if(l.c.b)d|=B1;
 226               		.loc 1 41 0 is_stmt 1
 227 00aa 3111      		cpse r19,__zero_reg__
 228               		.loc 1 41 0 is_stmt 0 discriminator 1
 229 00ac 8260      		ori r24,2
 230               	.LVL25:
 231               	.L13:
 232               	/* epilogue start */
  42:Led.c         ****     }
  43:Led.c         ****     return d;
  44:Led.c         **** }
 233               		.loc 1 44 0 is_stmt 1
 234 00ae 0F90      		pop __tmp_reg__
 235 00b0 0F90      		pop __tmp_reg__
 236 00b2 0F90      		pop __tmp_reg__
 237 00b4 0F90      		pop __tmp_reg__
 238 00b6 0F90      		pop __tmp_reg__
 239 00b8 DF91      		pop r29
 240 00ba CF91      		pop r28
 241 00bc 0895      		ret
 242               		.cfi_endproc
 243               	.LFE9:
 245               	.global	getDataByColor
 247               	getDataByColor:
 248               	.LFB10:
  45:Led.c         **** 
  46:Led.c         **** uint32_t getDataByColor(Tcolor c, uint8_t mode, Led* leds){
 249               		.loc 1 46 0
 250               		.cfi_startproc
 251               	.LVL26:
 252 00be EF92      		push r14
 253               	.LCFI6:
 254               		.cfi_def_cfa_offset 3
 255               		.cfi_offset 14, -2
 256 00c0 FF92      		push r15
 257               	.LCFI7:
 258               		.cfi_def_cfa_offset 4
 259               		.cfi_offset 15, -3
 260 00c2 0F93      		push r16
 261               	.LCFI8:
 262               		.cfi_def_cfa_offset 5
 263               		.cfi_offset 16, -4
 264 00c4 1F93      		push r17
 265               	.LCFI9:
 266               		.cfi_def_cfa_offset 6
 267               		.cfi_offset 17, -5
 268 00c6 CF93      		push r28
 269               	.LCFI10:
 270               		.cfi_def_cfa_offset 7
 271               		.cfi_offset 28, -6
 272 00c8 DF93      		push r29
 273               	.LCFI11:
 274               		.cfi_def_cfa_offset 8
 275               		.cfi_offset 29, -7
 276               	/* prologue: function */
 277               	/* frame size = 0 */
 278               	/* stack size = 6 */
 279               	.L__stack_usage = 6
 280 00ca 562F      		mov r21,r22
 281 00cc F72E      		mov r15,r23
 282 00ce E82E      		mov r14,r24
 283 00d0 F901      		movw r30,r18
 284               	.LVL27:
 285 00d2 D901      		movw r26,r18
 286 00d4 A15A      		subi r26,-95
 287 00d6 BF4F      		sbci r27,-1
  47:Led.c         ****     uint32_t data=0;
 288               		.loc 1 47 0
 289 00d8 60E0      		ldi r22,0
 290 00da 70E0      		ldi r23,0
 291 00dc CB01      		movw r24,r22
 292               	.LVL28:
 293               	.LBB39:
  48:Led.c         ****     for(uint8_t i=0;i<NBLEDS;i++){
  49:Led.c         ****         if(leds[i].row==mode){
  50:Led.c         ****             if((leds[i].c.r && c.r) || (leds[i].c.g && c.g) || (leds[i].c.b && c.b)){
  51:Led.c         ****                 data|=(1<<leds[i].col);
 294               		.loc 1 51 0
 295 00de C1E0      		ldi r28,lo8(1)
 296 00e0 D0E0      		ldi r29,0
 297               	.LVL29:
 298               	.L35:
  49:Led.c         ****             if((leds[i].c.r && c.r) || (leds[i].c.g && c.g) || (leds[i].c.b && c.b)){
 299               		.loc 1 49 0
 300 00e2 2181      		ldd r18,Z+1
 301 00e4 2413      		cpse r18,r20
 302 00e6 00C0      		rjmp .L31
  50:Led.c         ****                 data|=(1<<leds[i].col);
 303               		.loc 1 50 0
 304 00e8 2281      		ldd r18,Z+2
 305 00ea 2223      		tst r18
 306 00ec 01F0      		breq .L32
  50:Led.c         ****                 data|=(1<<leds[i].col);
 307               		.loc 1 50 0 is_stmt 0 discriminator 1
 308 00ee 5111      		cpse r21,__zero_reg__
 309 00f0 00C0      		rjmp .L33
 310               	.L32:
  50:Led.c         ****                 data|=(1<<leds[i].col);
 311               		.loc 1 50 0 discriminator 3
 312 00f2 2381      		ldd r18,Z+3
 313 00f4 2223      		tst r18
 314 00f6 01F0      		breq .L34
 315               	.LVL30:
  50:Led.c         ****                 data|=(1<<leds[i].col);
 316               		.loc 1 50 0 discriminator 4
 317 00f8 F110      		cpse r15,__zero_reg__
 318 00fa 00C0      		rjmp .L33
 319               	.L34:
  50:Led.c         ****                 data|=(1<<leds[i].col);
 320               		.loc 1 50 0 discriminator 6
 321 00fc 2481      		ldd r18,Z+4
 322 00fe 2223      		tst r18
 323 0100 01F0      		breq .L31
 324               	.LVL31:
  50:Led.c         ****                 data|=(1<<leds[i].col);
 325               		.loc 1 50 0 discriminator 7
 326 0102 EE20      		tst r14
 327 0104 01F0      		breq .L31
 328               	.L33:
 329               		.loc 1 51 0 is_stmt 1
 330 0106 8E01      		movw r16,r28
 331 0108 0080      		ld r0,Z
 332 010a 00C0      		rjmp 2f
 333               		1:
 334 010c 000F      		lsl r16
 335 010e 111F      		rol r17
 336               		2:
 337 0110 0A94      		dec r0
 338 0112 02F4      		brpl 1b
 339 0114 012E      		mov __tmp_reg__,r17
 340 0116 000C      		lsl r0
 341 0118 220B      		sbc r18,r18
 342 011a 330B      		sbc r19,r19
 343 011c 602B      		or r22,r16
 344 011e 712B      		or r23,r17
 345 0120 822B      		or r24,r18
 346 0122 932B      		or r25,r19
 347               	.LVL32:
 348               	.L31:
 349 0124 3596      		adiw r30,5
  48:Led.c         ****     for(uint8_t i=0;i<NBLEDS;i++){
 350               		.loc 1 48 0 discriminator 2
 351 0126 EA17      		cp r30,r26
 352 0128 FB07      		cpc r31,r27
 353 012a 01F4      		brne .L35
 354               	/* epilogue start */
 355               	.LBE39:
  52:Led.c         ****             }
  53:Led.c         ****         }
  54:Led.c         ****     }
  55:Led.c         ****     return data;
  56:Led.c         **** }
 356               		.loc 1 56 0
 357 012c DF91      		pop r29
 358 012e CF91      		pop r28
 359 0130 1F91      		pop r17
 360 0132 0F91      		pop r16
 361 0134 FF90      		pop r15
 362 0136 EF90      		pop r14
 363 0138 0895      		ret
 364               		.cfi_endproc
 365               	.LFE10:
 367               	.global	ledOff
 369               	ledOff:
 370               	.LFB11:
  57:Led.c         **** 
  58:Led.c         **** void ledOff(Led* l){
 371               		.loc 1 58 0
 372               		.cfi_startproc
 373               	.LVL33:
 374               	/* prologue: function */
 375               	/* frame size = 0 */
 376               	/* stack size = 0 */
 377               	.L__stack_usage = 0
 378 013a FC01      		movw r30,r24
  59:Led.c         ****     l->c.r=0;
 379               		.loc 1 59 0
 380 013c 1282      		std Z+2,__zero_reg__
  60:Led.c         ****     l->c.g=0;
 381               		.loc 1 60 0
 382 013e 1382      		std Z+3,__zero_reg__
  61:Led.c         ****     l->c.b=0;
 383               		.loc 1 61 0
 384 0140 1482      		std Z+4,__zero_reg__
 385 0142 0895      		ret
 386               		.cfi_endproc
 387               	.LFE11:
 389               	.global	ledOn
 391               	ledOn:
 392               	.LFB12:
  62:Led.c         **** }
  63:Led.c         **** void ledOn(Led* l){
 393               		.loc 1 63 0
 394               		.cfi_startproc
 395               	.LVL34:
 396               	/* prologue: function */
 397               	/* frame size = 0 */
 398               	/* stack size = 0 */
 399               	.L__stack_usage = 0
 400 0144 FC01      		movw r30,r24
  64:Led.c         ****     l->c.r=255;
 401               		.loc 1 64 0
 402 0146 8FEF      		ldi r24,lo8(-1)
 403               	.LVL35:
 404 0148 8283      		std Z+2,r24
  65:Led.c         ****     l->c.g=255;
 405               		.loc 1 65 0
 406 014a 8383      		std Z+3,r24
  66:Led.c         ****     l->c.b=255;
 407               		.loc 1 66 0
 408 014c 8483      		std Z+4,r24
 409 014e 0895      		ret
 410               		.cfi_endproc
 411               	.LFE12:
 413               	.global	ledOnC
 415               	ledOnC:
 416               	.LFB13:
  67:Led.c         **** }
  68:Led.c         **** 
  69:Led.c         **** void ledOnC(Led* l,Tcolor c){
 417               		.loc 1 69 0
 418               		.cfi_startproc
 419               	.LVL36:
 420               	/* prologue: function */
 421               	/* frame size = 0 */
 422               	/* stack size = 0 */
 423               	.L__stack_usage = 0
  70:Led.c         ****     l->c=c;   
 424               		.loc 1 70 0
 425 0150 FC01      		movw r30,r24
 426 0152 4283      		std Z+2,r20
 427 0154 5383      		std Z+3,r21
 428 0156 6483      		std Z+4,r22
 429 0158 0895      		ret
 430               		.cfi_endproc
 431               	.LFE13:
 433               	.global	ledOnV
 435               	ledOnV:
 436               	.LFB14:
  71:Led.c         **** }
  72:Led.c         **** 
  73:Led.c         **** void ledOnV(Led* l,uint32_t v){
 437               		.loc 1 73 0
 438               		.cfi_startproc
 439               	.LVL37:
 440               	/* prologue: function */
 441               	/* frame size = 0 */
 442               	/* stack size = 0 */
 443               	.L__stack_usage = 0
 444 015a FC01      		movw r30,r24
 445               	.LVL38:
  74:Led.c         ****     l->c=tcolorV(v);
 446               		.loc 1 74 0
 447 015c 6283      		std Z+2,r22
 448 015e 5383      		std Z+3,r21
 449 0160 4483      		std Z+4,r20
 450 0162 0895      		ret
 451               		.cfi_endproc
 452               	.LFE14:
 454               	.global	setLeds
 456               	setLeds:
 457               	.LFB15:
  75:Led.c         **** }
  76:Led.c         **** 
  77:Led.c         **** void setLeds(Ttime t,Led* l,Tcolor c){
 458               		.loc 1 77 0
 459               		.cfi_startproc
 460               	.LVL39:
 461 0164 6F92      		push r6
 462               	.LCFI12:
 463               		.cfi_def_cfa_offset 3
 464               		.cfi_offset 6, -2
 465 0166 7F92      		push r7
 466               	.LCFI13:
 467               		.cfi_def_cfa_offset 4
 468               		.cfi_offset 7, -3
 469 0168 8F92      		push r8
 470               	.LCFI14:
 471               		.cfi_def_cfa_offset 5
 472               		.cfi_offset 8, -4
 473 016a CF92      		push r12
 474               	.LCFI15:
 475               		.cfi_def_cfa_offset 6
 476               		.cfi_offset 12, -5
 477 016c DF92      		push r13
 478               	.LCFI16:
 479               		.cfi_def_cfa_offset 7
 480               		.cfi_offset 13, -6
 481 016e EF92      		push r14
 482               	.LCFI17:
 483               		.cfi_def_cfa_offset 8
 484               		.cfi_offset 14, -7
 485 0170 FF92      		push r15
 486               	.LCFI18:
 487               		.cfi_def_cfa_offset 9
 488               		.cfi_offset 15, -8
 489 0172 0F93      		push r16
 490               	.LCFI19:
 491               		.cfi_def_cfa_offset 10
 492               		.cfi_offset 16, -9
 493 0174 CF93      		push r28
 494               	.LCFI20:
 495               		.cfi_def_cfa_offset 11
 496               		.cfi_offset 28, -10
 497 0176 DF93      		push r29
 498               	.LCFI21:
 499               		.cfi_def_cfa_offset 12
 500               		.cfi_offset 29, -11
 501 0178 00D0      		rcall .
 502 017a 00D0      		rcall .
 503 017c 1F92      		push __zero_reg__
 504               	.LCFI22:
 505               		.cfi_def_cfa_offset 17
 506 017e CDB7      		in r28,__SP_L__
 507 0180 DEB7      		in r29,__SP_H__
 508               	.LCFI23:
 509               		.cfi_def_cfa_register 28
 510               	/* prologue: function */
 511               	/* frame size = 5 */
 512               	/* stack size = 15 */
 513               	.L__stack_usage = 15
 514 0182 6901      		movw r12,r18
 515 0184 3701      		movw r6,r14
 516 0186 802E      		mov r8,r16
 517               	.LVL40:
 518 0188 F901      		movw r30,r18
 519 018a C901      		movw r24,r18
 520 018c 815A      		subi r24,-95
 521 018e 9F4F      		sbci r25,-1
 522               	.LVL41:
 523               	.L54:
 524               	.LBB40:
 525               	.LBB41:
  59:Led.c         ****     l->c.g=0;
 526               		.loc 1 59 0 discriminator 2
 527 0190 1282      		std Z+2,__zero_reg__
  60:Led.c         ****     l->c.b=0;
 528               		.loc 1 60 0 discriminator 2
 529 0192 1382      		std Z+3,__zero_reg__
  61:Led.c         **** }
 530               		.loc 1 61 0 discriminator 2
 531 0194 1482      		std Z+4,__zero_reg__
 532               	.LVL42:
 533 0196 3596      		adiw r30,5
 534               	.LBE41:
 535               	.LBE40:
  78:Led.c         ****     uint8_t i=0;
  79:Led.c         ****     for(;i<NBLEDS;i++){
 536               		.loc 1 79 0 discriminator 2
 537 0198 E817      		cp r30,r24
 538 019a F907      		cpc r31,r25
 539 019c 01F4      		brne .L54
 540               	.LVL43:
 541               	.LBB42:
 542               	.LBB43:
  70:Led.c         **** }
 543               		.loc 1 70 0
 544 019e F601      		movw r30,r12
 545 01a0 E65A      		subi r30,-90
 546 01a2 FF4F      		sbci r31,-1
 547               	.LVL44:
 548 01a4 6282      		std Z+2,r6
 549 01a6 7382      		std Z+3,r7
 550 01a8 8482      		std Z+4,r8
 551               	.LVL45:
 552               	.LBE43:
 553               	.LBE42:
  80:Led.c         ****         ledOff(&l[i]);
  81:Led.c         ****     }
  82:Led.c         ****     ledOnC(&l[ILEST],c);
  83:Led.c         ****     uint8_t temp=currentTime.hour;
 554               		.loc 1 83 0
 555 01aa E091 0000 		lds r30,currentTime
 556               	.LVL46:
  84:Led.c         ****     if(currentTime.min>35){
 557               		.loc 1 84 0
 558 01ae 2091 0000 		lds r18,currentTime+1
  85:Led.c         ****         temp=(temp+1)%12;
 559               		.loc 1 85 0
 560 01b2 8E2F      		mov r24,r30
  84:Led.c         ****     if(currentTime.min>35){
 561               		.loc 1 84 0
 562 01b4 2432      		cpi r18,lo8(36)
 563 01b6 00F0      		brlo .L55
 564               		.loc 1 85 0
 565 01b8 90E0      		ldi r25,0
 566 01ba 0196      		adiw r24,1
 567 01bc 6CE0      		ldi r22,lo8(12)
 568 01be 70E0      		ldi r23,0
 569 01c0 00D0      		rcall __divmodhi4
 570               	.LVL47:
 571               	.L55:
  86:Led.c         ****     }
  87:Led.c         ****     switch(temp){
 572               		.loc 1 87 0
 573 01c2 8823      		tst r24
 574 01c4 01F0      		breq .L57
 575 01c6 8C30      		cpi r24,lo8(12)
 576 01c8 01F4      		brne .L69
 577               	.LVL48:
 578               	.LBB44:
 579               	.LBB45:
  70:Led.c         **** }
 580               		.loc 1 70 0
 581 01ca F601      		movw r30,r12
 582 01cc EF5B      		subi r30,-65
 583 01ce FF4F      		sbci r31,-1
 584               	.LVL49:
 585 01d0 00C0      		rjmp .L68
 586               	.LVL50:
 587               	.L57:
 588               	.LBE45:
 589               	.LBE44:
 590               	.LBB46:
 591               	.LBB47:
 592 01d2 F601      		movw r30,r12
 593 01d4 618A      		std Z+17,r6
 594 01d6 728A      		std Z+18,r7
 595 01d8 838A      		std Z+19,r8
 596 01da 00C0      		rjmp .L59
 597               	.LVL51:
 598               	.L69:
 599               	.LBE47:
 600               	.LBE46:
  88:Led.c         ****         case 0 :
  89:Led.c         ****             ledOnC(&l[MINUIT],c);
  90:Led.c         ****             break;
  91:Led.c         ****         case 12 :
  92:Led.c         ****             ledOnC(&l[MIDI],c);
  93:Led.c         ****             break;
  94:Led.c         ****         default :
  95:Led.c         ****             ledOnC(&l[ledMap[(currentTime.hour)]],c);
 601               		.loc 1 95 0
 602 01dc F0E0      		ldi r31,0
 603 01de E050      		subi r30,lo8(-(ledMap))
 604 01e0 F040      		sbci r31,hi8(-(ledMap))
 605 01e2 8081      		ld r24,Z
 606               	.LVL52:
 607 01e4 90E0      		ldi r25,0
 608 01e6 65E0      		ldi r22,lo8(5)
 609 01e8 70E0      		ldi r23,0
 610 01ea 00D0      		rcall __mulhi3
 611 01ec 8C0D      		add r24,r12
 612 01ee 9D1D      		adc r25,r13
 613               	.LVL53:
 614               	.LBB48:
 615               	.LBB49:
  70:Led.c         **** }
 616               		.loc 1 70 0
 617 01f0 FC01      		movw r30,r24
 618 01f2 6282      		std Z+2,r6
 619 01f4 7382      		std Z+3,r7
 620 01f6 8482      		std Z+4,r8
 621               	.LVL54:
 622               	.LBE49:
 623               	.LBE48:
 624               	.LBB50:
 625               	.LBB51:
 626 01f8 F601      		movw r30,r12
 627 01fa E55B      		subi r30,-75
 628 01fc FF4F      		sbci r31,-1
 629               	.LVL55:
 630               	.L68:
 631 01fe 6282      		std Z+2,r6
 632 0200 7382      		std Z+3,r7
 633 0202 8482      		std Z+4,r8
 634               	.L59:
 635               	.LBE51:
 636               	.LBE50:
  96:Led.c         ****             ledOnC(&l[HEURE],c);
  97:Led.c         ****             break;
  98:Led.c         ****     }
  99:Led.c         ****     temp = minquad(currentTime.min); 
 637               		.loc 1 99 0
 638 0204 822F      		mov r24,r18
 639 0206 00D0      		rcall minquad
 640               	.LVL56:
 100:Led.c         ****     if(temp > 30){
 641               		.loc 1 100 0
 642 0208 8F31      		cpi r24,lo8(31)
 643 020a 00F0      		brlo .L60
 644               	.LVL57:
 645               	.LBB52:
 646               	.LBB53:
  70:Led.c         **** }
 647               		.loc 1 70 0
 648 020c F601      		movw r30,r12
 649 020e 67A6      		std Z+47,r6
 650 0210 70AA      		std Z+48,r7
 651 0212 81AA      		std Z+49,r8
 652               	.LVL58:
 653               	.LBE53:
 654               	.LBE52:
 101:Led.c         ****         ledOnC(&l[MOINS],c);
 102:Led.c         ****         temp=60-temp;
 655               		.loc 1 102 0
 656 0214 9CE3      		ldi r25,lo8(60)
 657 0216 981B      		sub r25,r24
 658 0218 892F      		mov r24,r25
 659               	.LVL59:
 660               	.L60:
 103:Led.c         ****     }
 104:Led.c         ****     switch(temp){
 661               		.loc 1 104 0
 662 021a 8431      		cpi r24,lo8(20)
 663 021c 01F0      		breq .L62
 664 021e 8E31      		cpi r24,lo8(30)
 665 0220 01F0      		breq .L63
 666 0222 8A30      		cpi r24,lo8(10)
 667 0224 01F4      		brne .L53
 668               	.LVL60:
 669               	.LBB54:
 670               	.LBB55:
  70:Led.c         **** }
 671               		.loc 1 70 0
 672 0226 F601      		movw r30,r12
 673 0228 638E      		std Z+27,r6
 674 022a 748E      		std Z+28,r7
 675 022c 858E      		std Z+29,r8
 676 022e 00C0      		rjmp .L53
 677               	.LVL61:
 678               	.L62:
 679               	.LBE55:
 680               	.LBE54:
 681               	.LBB56:
 682               	.LBB57:
 683 0230 F601      		movw r30,r12
 684 0232 61AE      		std Z+57,r6
 685 0234 72AE      		std Z+58,r7
 686 0236 83AE      		std Z+59,r8
 687 0238 00C0      		rjmp .L53
 688               	.LVL62:
 689               	.L63:
 690               	.LBE57:
 691               	.LBE56:
 692               	.LBB58:
 693               	.LBB59:
 694 023a F601      		movw r30,r12
 695 023c 6782      		std Z+7,r6
 696 023e 7086      		std Z+8,r7
 697 0240 8186      		std Z+9,r8
 698               	.LVL63:
 699               	.L53:
 700               	/* epilogue start */
 701               	.LBE59:
 702               	.LBE58:
 105:Led.c         ****         case 10 :
 106:Led.c         ****             ledOnC(&l[DIX],c);
 107:Led.c         ****             break;
 108:Led.c         ****         case 20 :
 109:Led.c         ****             ledOnC(&l[VINGT],c);
 110:Led.c         ****             break;
 111:Led.c         ****         case 30 :
 112:Led.c         ****             ledOnC(&l[ETDEMIE],c);
 113:Led.c         ****             break;
 114:Led.c         ****     }
 115:Led.c         **** }
 703               		.loc 1 115 0
 704 0242 0F90      		pop __tmp_reg__
 705 0244 0F90      		pop __tmp_reg__
 706 0246 0F90      		pop __tmp_reg__
 707 0248 0F90      		pop __tmp_reg__
 708 024a 0F90      		pop __tmp_reg__
 709 024c DF91      		pop r29
 710 024e CF91      		pop r28
 711 0250 0F91      		pop r16
 712 0252 FF90      		pop r15
 713 0254 EF90      		pop r14
 714 0256 DF90      		pop r13
 715 0258 CF90      		pop r12
 716               	.LVL64:
 717 025a 8F90      		pop r8
 718 025c 7F90      		pop r7
 719 025e 6F90      		pop r6
 720               	.LVL65:
 721 0260 0895      		ret
 722               		.cfi_endproc
 723               	.LFE15:
 725               	.global	setLedsNb
 727               	setLedsNb:
 728               	.LFB16:
 116:Led.c         **** 
 117:Led.c         **** void setLedsNb(int8_t nb, Led* l, Tcolor c){
 729               		.loc 1 117 0
 730               		.cfi_startproc
 731               	.LVL66:
 732 0262 CF93      		push r28
 733               	.LCFI24:
 734               		.cfi_def_cfa_offset 3
 735               		.cfi_offset 28, -2
 736 0264 DF93      		push r29
 737               	.LCFI25:
 738               		.cfi_def_cfa_offset 4
 739               		.cfi_offset 29, -3
 740               	/* prologue: function */
 741               	/* frame size = 0 */
 742               	/* stack size = 2 */
 743               	.L__stack_usage = 2
 744 0266 E82F      		mov r30,r24
 745 0268 DB01      		movw r26,r22
 746               	.LVL67:
 747 026a EB01      		movw r28,r22
 748 026c CB01      		movw r24,r22
 749               	.LVL68:
 750 026e 815A      		subi r24,-95
 751 0270 9F4F      		sbci r25,-1
 752               	.LVL69:
 753               	.L71:
 754               	.LBB60:
 755               	.LBB61:
  59:Led.c         ****     l->c.g=0;
 756               		.loc 1 59 0 discriminator 2
 757 0272 1A82      		std Y+2,__zero_reg__
  60:Led.c         ****     l->c.b=0;
 758               		.loc 1 60 0 discriminator 2
 759 0274 1B82      		std Y+3,__zero_reg__
  61:Led.c         **** }
 760               		.loc 1 61 0 discriminator 2
 761 0276 1C82      		std Y+4,__zero_reg__
 762               	.LVL70:
 763 0278 2596      		adiw r28,5
 764               	.LBE61:
 765               	.LBE60:
 118:Led.c         ****     uint8_t i=0;
 119:Led.c         ****     for(;i<NBLEDS;i++){
 766               		.loc 1 119 0 discriminator 2
 767 027a 8C17      		cp r24,r28
 768 027c 9D07      		cpc r25,r29
 769 027e 01F4      		brne .L71
 120:Led.c         ****         ledOff(&l[i]);
 121:Led.c         ****     }
 122:Led.c         ****     if(nb < 0){
 770               		.loc 1 122 0
 771 0280 E7FF      		sbrs r30,7
 772 0282 00C0      		rjmp .L72
 773               	.LVL71:
 774               	.LBB62:
 775               	.LBB63:
  70:Led.c         **** }
 776               		.loc 1 70 0
 777 0284 9F96      		adiw r26,47
 778 0286 2D93      		st X+,r18
 779 0288 3D93      		st X+,r19
 780 028a 4C93      		st X,r20
 781 028c D197      		sbiw r26,47+2
 782               	.LVL72:
 783               	.LBE63:
 784               	.LBE62:
 123:Led.c         ****         ledOnC(&l[MOINS],c);
 124:Led.c         ****         nb=-nb;
 785               		.loc 1 124 0
 786 028e E195      		neg r30
 787               	.LVL73:
 788               	.L72:
 125:Led.c         ****     }
 126:Led.c         ****     if(nb>29){
 789               		.loc 1 126 0
 790 0290 EE31      		cpi r30,lo8(30)
 791 0292 04F0      		brlt .L73
 792               	.LVL74:
 793               	.LBB64:
 794               	.LBB65:
  70:Led.c         **** }
 795               		.loc 1 70 0
 796 0294 D996      		adiw r26,57
 797 0296 2D93      		st X+,r18
 798 0298 3D93      		st X+,r19
 799 029a 4C93      		st X,r20
 800 029c DB97      		sbiw r26,57+2
 801               	.LVL75:
 802               	.LBE65:
 803               	.LBE64:
 804               	.LBB66:
 805               	.LBB67:
 806 029e 5B96      		adiw r26,27
 807 02a0 2D93      		st X+,r18
 808 02a2 3D93      		st X+,r19
 809 02a4 4C93      		st X,r20
 810 02a6 5D97      		sbiw r26,27+2
 811               	.LVL76:
 812               	.LBE67:
 813               	.LBE66:
 127:Led.c         ****         ledOnC(&l[VINGT],c);
 128:Led.c         ****         ledOnC(&l[DIX],c);
 129:Led.c         ****         nb=nb-30;
 814               		.loc 1 129 0
 815 02a8 EE51      		subi r30,lo8(-(-30))
 816               	.LVL77:
 817 02aa 00C0      		rjmp .L74
 818               	.L73:
 130:Led.c         ****     }else if(nb>19){
 819               		.loc 1 130 0
 820 02ac E431      		cpi r30,lo8(20)
 821 02ae 04F0      		brlt .L75
 822               	.LVL78:
 823               	.LBB68:
 824               	.LBB69:
  70:Led.c         **** }
 825               		.loc 1 70 0
 826 02b0 D996      		adiw r26,57
 827 02b2 2D93      		st X+,r18
 828 02b4 3D93      		st X+,r19
 829 02b6 4C93      		st X,r20
 830 02b8 DB97      		sbiw r26,57+2
 831               	.LVL79:
 832               	.LBE69:
 833               	.LBE68:
 131:Led.c         ****         ledOnC(&l[VINGT],c);
 132:Led.c         ****         nb=nb-20;
 834               		.loc 1 132 0
 835 02ba E451      		subi r30,lo8(-(-20))
 836               	.LVL80:
 837 02bc 00C0      		rjmp .L74
 838               	.L75:
 133:Led.c         ****     }else if(nb>11){
 839               		.loc 1 133 0
 840 02be EC30      		cpi r30,lo8(12)
 841 02c0 04F0      		brlt .L74
 842               	.LVL81:
 843               	.LBB70:
 844               	.LBB71:
  70:Led.c         **** }
 845               		.loc 1 70 0
 846 02c2 5B96      		adiw r26,27
 847 02c4 2D93      		st X+,r18
 848 02c6 3D93      		st X+,r19
 849 02c8 4C93      		st X,r20
 850 02ca 5D97      		sbiw r26,27+2
 851               	.LVL82:
 852               	.LBE71:
 853               	.LBE70:
 134:Led.c         ****         ledOnC(&l[DIX],c);
 135:Led.c         ****         nb=nb-10;
 854               		.loc 1 135 0
 855 02cc EA50      		subi r30,lo8(-(-10))
 856               	.LVL83:
 857               	.L74:
 136:Led.c         ****     }
 137:Led.c         ****     ledOnC(&l[ledMap[nb-1]],c);
 858               		.loc 1 137 0
 859 02ce 0E2E      		mov __tmp_reg__,r30
 860 02d0 000C      		lsl r0
 861 02d2 FF0B      		sbc r31,r31
 862 02d4 E050      		subi r30,lo8(-(ledMap-1))
 863 02d6 F040      		sbci r31,hi8(-(ledMap-1))
 864               	.LVL84:
 865 02d8 8081      		ld r24,Z
 866 02da 90E0      		ldi r25,0
 867 02dc 65E0      		ldi r22,lo8(5)
 868 02de 70E0      		ldi r23,0
 869               	.LVL85:
 870 02e0 00D0      		rcall __mulhi3
 871 02e2 A80F      		add r26,r24
 872 02e4 B91F      		adc r27,r25
 873               	.LVL86:
 874               	.LBB72:
 875               	.LBB73:
  70:Led.c         **** }
 876               		.loc 1 70 0
 877 02e6 1296      		adiw r26,2
 878 02e8 2D93      		st X+,r18
 879 02ea 3D93      		st X+,r19
 880 02ec 4C93      		st X,r20
 881               	.LVL87:
 882               	/* epilogue start */
 883               	.LBE73:
 884               	.LBE72:
 138:Led.c         **** }
 885               		.loc 1 138 0
 886 02ee DF91      		pop r29
 887 02f0 CF91      		pop r28
 888 02f2 0895      		ret
 889               		.cfi_endproc
 890               	.LFE16:
 892               	.global	sendRawData
 894               	sendRawData:
 895               	.LFB17:
 139:Led.c         **** void sendRawData(uint32_t data){
 896               		.loc 1 139 0
 897               		.cfi_startproc
 898               	.LVL88:
 899 02f4 0F93      		push r16
 900               	.LCFI26:
 901               		.cfi_def_cfa_offset 3
 902               		.cfi_offset 16, -2
 903 02f6 1F93      		push r17
 904               	.LCFI27:
 905               		.cfi_def_cfa_offset 4
 906               		.cfi_offset 17, -3
 907               	/* prologue: function */
 908               	/* frame size = 0 */
 909               	/* stack size = 2 */
 910               	.L__stack_usage = 2
 140:Led.c         ****     PORTA &=~(STROBE|CLK);
 911               		.loc 1 140 0
 912 02f8 2BB3      		in r18,0x1b
 913 02fa 237F      		andi r18,lo8(-13)
 914 02fc 2BBB      		out 0x1b,r18
 915               	.LVL89:
 916 02fe 40E0      		ldi r20,0
 917 0300 50E0      		ldi r21,0
 918               	.LVL90:
 919               	.L80:
 920               	.LBB74:
 141:Led.c         ****     for(uint8_t i=0;i<20;i++){
 142:Led.c         ****         if((data>>i) & 0x00000001){
 921               		.loc 1 142 0
 922 0302 8B01      		movw r16,r22
 923 0304 9C01      		movw r18,r24
 924 0306 042E      		mov r0,r20
 925 0308 00C0      		rjmp 2f
 926               		1:
 927 030a 3695      		lsr r19
 928 030c 2795      		ror r18
 929 030e 1795      		ror r17
 930 0310 0795      		ror r16
 931               		2:
 932 0312 0A94      		dec r0
 933 0314 02F4      		brpl 1b
 934 0316 00FF      		sbrs r16,0
 935 0318 00C0      		rjmp .L78
 143:Led.c         ****             PORTA|=DATA;
 936               		.loc 1 143 0
 937 031a D99A      		sbi 0x1b,1
 938 031c 00C0      		rjmp .L79
 939               	.L78:
 144:Led.c         ****         }else{
 145:Led.c         ****             PORTA&=~DATA;
 940               		.loc 1 145 0
 941 031e D998      		cbi 0x1b,1
 942               	.L79:
 146:Led.c         ****         }
 147:Led.c         ****         PORTA|=CLK;
 943               		.loc 1 147 0 discriminator 2
 944 0320 DB9A      		sbi 0x1b,3
 148:Led.c         ****         PORTA&=~CLK;
 945               		.loc 1 148 0 discriminator 2
 946 0322 DB98      		cbi 0x1b,3
 947               	.LVL91:
 948 0324 4F5F      		subi r20,-1
 949 0326 5F4F      		sbci r21,-1
 950               	.LVL92:
 141:Led.c         ****         if((data>>i) & 0x00000001){
 951               		.loc 1 141 0 discriminator 2
 952 0328 4431      		cpi r20,20
 953 032a 5105      		cpc r21,__zero_reg__
 954 032c 01F4      		brne .L80
 955               	.LBE74:
 149:Led.c         ****     }
 150:Led.c         ****     PORTA|=STROBE;
 956               		.loc 1 150 0
 957 032e DA9A      		sbi 0x1b,2
 151:Led.c         ****     PORTA&=~STROBE;
 958               		.loc 1 151 0
 959 0330 DA98      		cbi 0x1b,2
 960               	/* epilogue start */
 152:Led.c         **** }
 961               		.loc 1 152 0
 962 0332 1F91      		pop r17
 963 0334 0F91      		pop r16
 964 0336 0895      		ret
 965               		.cfi_endproc
 966               	.LFE17:
 968               		.section	.rodata
 971               	ledMap:
 972 0000 07        		.byte	7
 973 0001 08        		.byte	8
 974 0002 0A        		.byte	10
 975 0003 0E        		.byte	14
 976 0004 00        		.byte	0
 977 0005 04        		.byte	4
 978 0006 11        		.byte	17
 979 0007 02        		.byte	2
 980 0008 0C        		.byte	12
 981 0009 06        		.byte	6
 982 000a 10        		.byte	16
 983               		.comm	currentColor,3,1
 984               		.comm	USI_I2C_Master_State,1,1
 985               		.comm	currentTime,5,1
 986               		.text
 987               	.Letext0:
 988               		.file 2 "/usr/lib/avr/include/stdint.h"
 989               		.file 3 "RTC.h"
 990               		.file 4 "Led.h"